
app.elf:     file format elf32-littleriscv
app.elf
architecture: riscv:rv32, flags 0x00000112:
EXEC_P, HAS_SYMS, D_PAGED
start address 0x000003c8

Program Header:
0x70000003 off    0x00027062 vaddr 0x00000000 paddr 0x00000000 align 2**0
         filesz 0x00000034 memsz 0x00000000 flags r--
    LOAD off    0x00001000 vaddr 0x00000000 paddr 0x00000000 align 2**12
         filesz 0x00000020 memsz 0x00000020 flags r-x
    LOAD off    0x00001020 vaddr 0x00000020 paddr 0x00000020 align 2**12
         filesz 0x00024430 memsz 0x00024430 flags r-x
    LOAD off    0x00025450 vaddr 0x00024450 paddr 0x00026050 align 2**12
         filesz 0x00001c00 memsz 0x00001c00 flags rw-
    LOAD off    0x00000c50 vaddr 0x00027c50 paddr 0x00027c50 align 2**12
         filesz 0x00000000 memsz 0x00013b84 flags rw-

Sections:
Idx Name          Size      VMA       LMA       File off  Algn
  0 .entry        00000020  00000000  00000000  00001000  2**5
                  CONTENTS, ALLOC, LOAD, READONLY, CODE
  1 .exceptions   0000029c  00000020  00000020  00001020  2**2
                  CONTENTS, ALLOC, LOAD, READONLY, CODE
  2 .text         0002314c  00000300  00000300  00001300  2**8
                  CONTENTS, ALLOC, LOAD, READONLY, CODE
  3 .rodata       00001000  00023450  00023450  00024450  2**4
                  CONTENTS, ALLOC, LOAD, READONLY, DATA
  4 .rwdata       00001c00  00024450  00026050  00025450  2**3
                  CONTENTS, ALLOC, LOAD, DATA
  5 .bss          00013b84  00027c50  00027c50  00027c50  2**3
                  ALLOC
  6 .onchip_memory2 00000000  0003b7d4  0003b7d4  00027050  2**0
                  CONTENTS
  7 .comment      00000012  00000000  00000000  00027050  2**0
                  CONTENTS, READONLY
  8 .riscv.attributes 00000034  00000000  00000000  00027062  2**0
                  CONTENTS, READONLY
  9 .debug_aranges 00000860  00000000  00000000  00027098  2**3
                  CONTENTS, READONLY, DEBUGGING, OCTETS
 10 .debug_info   00013006  00000000  00000000  000278f8  2**0
                  CONTENTS, READONLY, DEBUGGING, OCTETS
 11 .debug_abbrev 000057cf  00000000  00000000  0003a8fe  2**0
                  CONTENTS, READONLY, DEBUGGING, OCTETS
 12 .debug_line   00013e49  00000000  00000000  000400cd  2**0
                  CONTENTS, READONLY, DEBUGGING, OCTETS
 13 .debug_frame  00002a8c  00000000  00000000  00053f18  2**2
                  CONTENTS, READONLY, DEBUGGING, OCTETS
 14 .debug_str    00003f49  00000000  00000000  000569a4  2**0
                  CONTENTS, READONLY, DEBUGGING, OCTETS
 15 .debug_line_str 00001cce  00000000  00000000  0005a8ed  2**0
                  CONTENTS, READONLY, DEBUGGING, OCTETS
 16 .debug_ranges 00000058  00000000  00000000  0005c5c0  2**3
                  CONTENTS, READONLY, DEBUGGING, OCTETS
 17 .debug_rnglists 00001efb  00000000  00000000  0005c618  2**0
                  CONTENTS, READONLY, DEBUGGING, OCTETS
 18 .debug_loclists 0000e363  00000000  00000000  0005e513  2**0
                  CONTENTS, READONLY, DEBUGGING, OCTETS
SYMBOL TABLE:
00000000 l    d  .entry	00000000 .entry
00000020 l    d  .exceptions	00000000 .exceptions
00000300 l    d  .text	00000000 .text
00023450 l    d  .rodata	00000000 .rodata
00024450 l    d  .rwdata	00000000 .rwdata
00027c50 l    d  .bss	00000000 .bss
0003b7d4 l    d  .onchip_memory2	00000000 .onchip_memory2
00000000 l    d  .comment	00000000 .comment
00000000 l    d  .riscv.attributes	00000000 .riscv.attributes
00000000 l    d  .debug_aranges	00000000 .debug_aranges
00000000 l    d  .debug_info	00000000 .debug_info
00000000 l    d  .debug_abbrev	00000000 .debug_abbrev
00000000 l    d  .debug_line	00000000 .debug_line
00000000 l    d  .debug_frame	00000000 .debug_frame
00000000 l    d  .debug_str	00000000 .debug_str
00000000 l    d  .debug_line_str	00000000 .debug_line_str
00000000 l    d  .debug_ranges	00000000 .debug_ranges
00000000 l    d  .debug_rnglists	00000000 .debug_rnglists
00000000 l    d  .debug_loclists	00000000 .debug_loclists
00000000 l    df *ABS*	00000000 crt0.S.obj
00000480 l       .text	00000000 alt_after_alt_main
00000000 l    df *ABS*	00000000 machine_trap.S.obj
00000020 l       .exceptions	00000000 save_registers
00000000 l    df *ABS*	00000000 alt_irq_handler.c
00000000 l    df *ABS*	00000000 main.c
00000300 l     F .text	00000030 Task1
00000330 l     F .text	00000030 Task2
00000000 l    df *ABS*	00000000 tasks.c
00027ce4 l     O .bss	0000008c pxReadyTasksLists
00027d70 l     O .bss	00000014 xDelayedTaskList1
00027d84 l     O .bss	00000014 xDelayedTaskList2
00027d98 l     O .bss	00000004 pxDelayedTaskList
00027d9c l     O .bss	00000004 pxOverflowDelayedTaskList
00027da0 l     O .bss	00000014 xPendingReadyList
00027db4 l     O .bss	00000014 xTasksWaitingTermination
00027dc8 l     O .bss	00000004 uxDeletedTasksWaitingCleanUp
00027dcc l     O .bss	00000014 xSuspendedTaskList
00027de0 l     O .bss	00000004 uxCurrentNumberOfTasks
00027de4 l     O .bss	00000004 xTickCount
00027de8 l     O .bss	00000004 uxTopReadyPriority
00027dec l     O .bss	00000004 xSchedulerRunning
00027df0 l     O .bss	00000004 xPendedTicks
00027df4 l     O .bss	00000004 xYieldPending
00027df8 l     O .bss	00000004 xNumOfOverflows
00027dfc l     O .bss	00000004 uxTaskNumber
00027e00 l     O .bss	00000004 xNextTaskUnblockTime
00027e04 l     O .bss	00000004 xIdleTaskHandle
00027e08 l     O .bss	00000004 uxSchedulerSuspended
00000570 l     F .text	000002b4 prvInitialiseNewTask
00000824 l     F .text	0000022c prvAddNewTaskToReadyList
00003688 l     F .text	000000c8 prvInitialiseTaskLists
00003b6c l     F .text	00000054 prvResetNextTaskUnblockTime
00003b18 l     F .text	00000054 prvDeleteTCB
0000545c l     F .text	000001c4 prvAddCurrentTaskToDelayedList
0000153c l     F .text	00000084 prvTaskIsTaskSuspended
0000366c l     F .text	0000001c prvIdleTask
00001ef4 l     F .text	00000180 prvSearchForNameWithinSingleList
00003978 l     F .text	00000138 prvListTasksWithinSingleList
00003750 l     F .text	000000c8 prvCheckTasksWaitingTermination
00003ab0 l     F .text	00000068 prvTaskCheckFreeStackSpace
00000000 l    df *ABS*	00000000 timers.c
00027e0c l     O .bss	00000014 xActiveTimerList1
00027e20 l     O .bss	00000014 xActiveTimerList2
00027e34 l     O .bss	00000004 pxCurrentTimerList
00027e38 l     O .bss	00000004 pxOverflowTimerList
00027e3c l     O .bss	00000004 xTimerQueue
00027e40 l     O .bss	00000004 xTimerTaskHandle
00006304 l     F .text	000000e4 prvCheckForValidListAndQueue
00005cdc l     F .text	00000050 prvTimerTask
00005714 l     F .text	000000b8 prvInitialiseNewTimer
00005bb8 l     F .text	00000088 prvReloadTimer
00005f08 l     F .text	000000e4 prvInsertTimerInActiveList
00005c40 l     F .text	0000009c prvProcessExpiredTimer
00005e2c l     F .text	00000070 prvGetNextExpireTime
00005d2c l     F .text	00000100 prvProcessTimerOrBlockTask
00005fec l     F .text	00000298 prvProcessReceivedCommands
00005e9c l     F .text	0000006c prvSampleTimeNow
00027e44 l     O .bss	00000004 xLastTime.0
00006284 l     F .text	00000080 prvSwitchTimerLists
00000000 l    df *ABS*	00000000 alt_load.c
0000676c l     F .text	00000064 alt_load_section
00000000 l    df *ABS*	00000000 alt_main.c
00000000 l    df *ABS*	00000000 alt_tls.c
00000000 l    df *ABS*	00000000 os_cpu_c.c
00000000 l    df *ABS*	00000000 alt_sys_init.c
00024450 l     O .rwdata	00001070 jtag_uart
00000000 l    df *ABS*	00000000 altera_avalon_jtag_uart_fd.c
00000000 l    df *ABS*	00000000 altera_avalon_jtag_uart_init.c
00006f24 l     F .text	000003d8 altera_avalon_jtag_uart_irq
000072fc l     F .text	000001b4 altera_avalon_jtag_uart_timeout
00000000 l    df *ABS*	00000000 altera_avalon_jtag_uart_ioctl.c
00000000 l    df *ABS*	00000000 altera_avalon_jtag_uart_read.c
00000000 l    df *ABS*	00000000 altera_avalon_jtag_uart_write.c
00000000 l    df *ABS*	00000000 alt_env_lock.c
00026008 l     O .rwdata	00000004 lockid
00027ec8 l     O .bss	00000004 locks
00000000 l    df *ABS*	00000000 alt_malloc_lock.c
0002600c l     O .rwdata	00000004 lockid
00027ecc l     O .bss	00000004 locks
00000000 l    df *ABS*	00000000 heap_wrapper.c
00027ed0 l     O .bss	00013880 ucHeap
00024420 l     O .rodata	00000004 xHeapStructSize
0003b750 l     O .bss	00000008 xStart
0003b758 l     O .bss	00000004 pxEnd
0003b75c l     O .bss	00000004 xFreeBytesRemaining
0003b760 l     O .bss	00000004 xMinimumEverFreeBytesRemaining
0003b764 l     O .bss	00000004 xNumberOfSuccessfulAllocations
0003b768 l     O .bss	00000004 xNumberOfSuccessfulFrees
0000865c l     F .text	00000134 prvHeapInit
00008790 l     F .text	0000013c prvInsertBlockIntoFreeList
00000000 l    df *ABS*	00000000 event_groups.c
00009348 l     F .text	00000070 prvTestWaitCondition
00000000 l    df *ABS*	00000000 list.c
00000000 l    df *ABS*	00000000 port.c
00000000 l    df *ABS*	00000000 portASM.S.obj
00009930 l       .text	00000000 chip_specific_stack_frame
00009b6c l       .text	00000000 other_exception
00009e5c l       .text	00000000 exit_without_context_switch
00009fb0 l       .text	00000000 synchronous_exception
00009fa0 l       .text	00000000 asynchronous_interrupt
00009fc4 l       .text	00000000 handle_interrupt
0000a030 l       .text	00000000 handle_exception
00009fc4 l       .text	00000000 test_if_mtimer
0000a028 l       .text	00000000 application_interrupt_handler
0000a048 l       .text	00000000 processed_source
0000a040 l       .text	00000000 application_exception_handler
00000000 l    df *ABS*	00000000 queue.c
0000a3a8 l     F .text	00000098 prvInitialiseNewQueue
0000a440 l     F .text	0000005c prvInitialiseMutex
0000be10 l     F .text	0000018c prvCopyDataToQueue
0000c92c l     F .text	00000138 prvNotifyQueueSetContainer
0000c29c l     F .text	00000084 prvIsQueueFull
0000c034 l     F .text	0000018c prvUnlockQueue
0000bf9c l     F .text	00000098 prvCopyDataFromQueue
0000c1c0 l     F .text	0000007c prvIsQueueEmpty
0000bdc0 l     F .text	00000050 prvGetDisinheritPriorityAfterTimeout
00000000 l    df *ABS*	00000000 alt_alarm_start.c
00000000 l    df *ABS*	00000000 alt_dcache_flush_all.c
00000000 l    df *ABS*	00000000 alt_dev.c
0000cc18 l     F .text	0000002c alt_dev_null_write
00000000 l    df *ABS*	00000000 alt_dev_llist_insert.c
0000cc80 l     F .text	0000004c alt_get_errno
00000000 l    df *ABS*	00000000 alt_do_ctors.c
00000000 l    df *ABS*	00000000 alt_do_dtors.c
00000000 l    df *ABS*	00000000 alt_errno.c
00000000 l    df *ABS*	00000000 alt_icache_flush_all.c
00000000 l    df *ABS*	00000000 alt_iic.c
00000000 l    df *ABS*	00000000 alt_iic_isr_register.c
00000000 l    df *ABS*	00000000 alt_io_redirect.c
0000d024 l     F .text	000000dc alt_open_fd
00000000 l    df *ABS*	00000000 alt_release_fd.c
00000000 l    df *ABS*	00000000 alt_tick.c
00000000 l    df *ABS*	00000000 intel_niosv_irq.c
00000000 l    df *ABS*	00000000 mtimer.c
00000000 l    df *ABS*	00000000 lib_a-atexit.o
00000000 l    df *ABS*	00000000 lib_a-exit.o
00000000 l    df *ABS*	00000000 lib_a-impure.o
00025668 l     O .rwdata	00000428 impure_data
00000000 l    df *ABS*	00000000 lib_a-memcpy.o
00000000 l    df *ABS*	00000000 lib_a-memset.o
00000000 l    df *ABS*	00000000 lib_a-printf.o
00000000 l    df *ABS*	00000000 lib_a-puts.o
00000000 l    df *ABS*	00000000 lib_a-reent.o
00000000 l    df *ABS*	00000000 lib_a-stack_protector.o
00000000 l    df *ABS*	00000000 lib_a-strlen.o
00000000 l    df *ABS*	00000000 lib_a-sysclose.o
00000000 l    df *ABS*	00000000 lib_a-sysopen.o
00000000 l    df *ABS*	00000000 lib_a-syswrite.o
00000000 l    df *ABS*	00000000 lib_a-vfprintf.o
00010a84 l     F .text	000000f8 __sbprintf
000237d8 l     O .rodata	00000010 blanks.1
000237e8 l     O .rodata	00000010 zeroes.0
00000000 l    df *ABS*	00000000 lib_a-writer.o
00000000 l    df *ABS*	00000000 lib_a-wsetup.o
00000000 l    df *ABS*	00000000 lib_a-__atexit.o
00000000 l    df *ABS*	00000000 lib_a-__call_atexit.o
00010f50 l     F .text	00000018 register_fini
00000000 l    df *ABS*	00000000 lib_a-closer.o
00000000 l    df *ABS*	00000000 lib_a-fflush.o
00000000 l    df *ABS*	00000000 lib_a-findfp.o
000113c4 l     F .text	00000040 __fp_lock
00011404 l     F .text	00000040 __fp_unlock
00000000 l    df *ABS*	00000000 lib_a-fini.o
00000000 l    df *ABS*	00000000 lib_a-freer.o
00000000 l    df *ABS*	00000000 lib_a-fvwrite.o
00000000 l    df *ABS*	00000000 lib_a-fwalk.o
00000000 l    df *ABS*	00000000 lib_a-ldtoa.o
000122fc l     F .text	00000054 eshdn1
00012350 l     F .text	00000054 eshup1
000123a4 l     F .text	0000008c m16m
00012430 l     F .text	000000bc emovo.constprop.0
000124ec l     F .text	00000174 enormlz
00012660 l     F .text	000001bc eshift.part.0
0001281c l     F .text	000000b4 emovi
000128d0 l     F .text	0000014c ecmp
00012a1c l     F .text	0000049c emdnorm
00012eb8 l     F .text	00000164 eiremain
0001301c l     F .text	00000154 e113toe.isra.0
00013170 l     F .text	00000594 ediv
00013704 l     F .text	000004d0 emul
000238a0 l     O .rodata	00000014 ezero
000238b4 l     O .rodata	00000104 etens
000239b8 l     O .rodata	00000104 emtens
00023abc l     O .rodata	00000014 eone
00023ad0 l     O .rodata	00000022 bmask
00000000 l    df *ABS*	00000000 lib_a-localeconv.o
00000000 l    df *ABS*	00000000 lib_a-lock.o
00000000 l    df *ABS*	00000000 lib_a-makebuf.o
00000000 l    df *ABS*	00000000 lib_a-mallocr.o
00000000 l    df *ABS*	00000000 lib_a-memchr.o
00000000 l    df *ABS*	00000000 lib_a-memmove-stub.o
00000000 l    df *ABS*	00000000 lib_a-mprec.o
00023b28 l     O .rodata	0000000c p05.0
00000000 l    df *ABS*	00000000 lib_a-openr.o
00000000 l    df *ABS*	00000000 lib_a-reallocr.o
00000000 l    df *ABS*	00000000 lib_a-s_frexp.o
00000000 l    df *ABS*	00000000 lib_a-sbrkr.o
00000000 l    df *ABS*	00000000 lib_a-signal.o
00000000 l    df *ABS*	00000000 lib_a-signalr.o
00000000 l    df *ABS*	00000000 lib_a-sprintf.o
00000000 l    df *ABS*	00000000 lib_a-stdio.o
00000000 l    df *ABS*	00000000 lib_a-strcpy.o
00000000 l    df *ABS*	00000000 lib_a-strncpy.o
00000000 l    df *ABS*	00000000 lib_a-svfprintf.o
00023e54 l     O .rodata	00000010 blanks.1
00023e64 l     O .rodata	00000010 zeroes.0
00000000 l    df *ABS*	00000000 lib_a-vfiprintf.o
0001a7e4 l     F .text	000000f4 __sprint_r.part.0
0001bd2c l     F .text	000000f8 __sbprintf
00023fe0 l     O .rodata	00000010 blanks.1
00023ff0 l     O .rodata	00000010 zeroes.0
00000000 l    df *ABS*	00000000 lib_a-assert.o
00000000 l    df *ABS*	00000000 lib_a-callocr.o
00000000 l    df *ABS*	00000000 lib_a-errno.o
00000000 l    df *ABS*	00000000 lib_a-fclose.o
00000000 l    df *ABS*	00000000 lib_a-fiprintf.o
00000000 l    df *ABS*	00000000 lib_a-fputwc.o
00000000 l    df *ABS*	00000000 lib_a-fstatr.o
00000000 l    df *ABS*	00000000 lib_a-isattyr.o
00000000 l    df *ABS*	00000000 lib_a-locale.o
00000000 l    df *ABS*	00000000 lib_a-lseekr.o
00000000 l    df *ABS*	00000000 lib_a-mbtowc_r.o
00000000 l    df *ABS*	00000000 lib_a-readr.o
00000000 l    df *ABS*	00000000 lib_a-strcmp.o
00000000 l    df *ABS*	00000000 lib_a-svfiprintf.o
000241bc l     O .rodata	00000010 blanks.1
000241cc l     O .rodata	00000010 zeroes.0
00000000 l    df *ABS*	00000000 lib_a-wbuf.o
00000000 l    df *ABS*	00000000 lib_a-wcrtomb.o
00000000 l    df *ABS*	00000000 lib_a-wctomb_r.o
00000000 l    df *ABS*	00000000 lib_a-abort.o
00000000 l    df *ABS*	00000000 libgcc2.c
00000000 l    df *ABS*	00000000 divdf3.c
00000000 l    df *ABS*	00000000 muldf3.c
00000000 l    df *ABS*	00000000 eqtf2.c
00000000 l    df *ABS*	00000000 getf2.c
00000000 l    df *ABS*	00000000 letf2.c
00000000 l    df *ABS*	00000000 multf3.c
00000000 l    df *ABS*	00000000 subtf3.c
00000000 l    df *ABS*	00000000 fixtfsi.c
00000000 l    df *ABS*	00000000 floatsitf.c
00000000 l    df *ABS*	00000000 extenddftf2.c
00000000 l    df *ABS*	00000000 trunctfdf2.c
00000000 l    df *ABS*	00000000 libgcc2.c
00000000 l    df *ABS*	00000000 alt_close.c
00022388 l     F .text	0000004c alt_get_errno
00000000 l    df *ABS*	00000000 alt_exit.c
00000000 l    df *ABS*	00000000 alt_fstat.c
000224f4 l     F .text	0000004c alt_get_errno
00000000 l    df *ABS*	00000000 alt_getpid.c
00000000 l    df *ABS*	00000000 alt_isatty.c
00022620 l     F .text	0000004c alt_get_errno
00000000 l    df *ABS*	00000000 alt_kill.c
00022768 l     F .text	0000004c alt_get_errno
00000000 l    df *ABS*	00000000 alt_lseek.c
000228a8 l     F .text	0000004c alt_get_errno
00000000 l    df *ABS*	00000000 alt_open.c
000229d4 l     F .text	0000004c alt_get_errno
00022a20 l     F .text	000000ec alt_file_locked
00000000 l    df *ABS*	00000000 alt_read.c
00022c74 l     F .text	0000004c alt_get_errno
00000000 l    df *ABS*	00000000 alt_sbrk.c
0002604c l     O .rwdata	00000004 heap_end
00000000 l    df *ABS*	00000000 alt_write.c
00022e94 l     F .text	0000004c alt_get_errno
00000000 l    df *ABS*	00000000 alt_find_dev.c
00000000 l    df *ABS*	00000000 alt_find_file.c
00000000 l    df *ABS*	00000000 alt_get_fd.c
00000000 l    df *ABS*	00000000 lib_a-sysfstat.o
0000dd34 g     F .text	0000000c .hidden __stack_chk_fail_local
00016c34 g     F .text	000000ac _mprec_log10
000093b8 g     F .text	00000050 xEventGroupSetBitsFromISR
00016d48 g     F .text	00000064 __any_on
0001c4a4 g     F .text	00000058 _isatty_r
00023c00 g     O .rodata	00000028 __mprec_tinytens
000085c0 g     F .text	0000009c pvPortCalloc
00006844 g     F .text	000000f0 alt_main
00017c54 g     F .text	000000b0 strcpy
0000dae8 g     F .text	00000094 cleanup_glue
00022600 g     F .text	00000020 _getpid
0000d9ac g     F .text	0000012c _puts_r
00027e48 g     O .bss	00000080 alt_irq
0001c600 g     F .text	00000064 _lseek_r
00002bfc g     F .text	00000108 vTaskPlaceOnUnorderedEventList
0000855c g     F .text	00000024 xPortGetFreeHeapSize
0000902c g     F .text	0000003c xEventGroupGetBitsFromISR
00026050 g       *ABS*	00000000 __flash_rwdata_start
0001ef20 g     F .text	00000158 .hidden __getf2
0003b7d4 g       *ABS*	00000000 __alt_heap_start
00000f50 g     F .text	00000088 uxTaskPriorityGet
000056a0 g     F .text	00000074 xTimerCreate
0001799c g     F .text	00000060 _kill_r
0001ee50 g     F .text	000000d0 .hidden __eqtf2
0000d95c g     F .text	00000050 printf
00026804 g       *ABS*	00000000 __global_pointer$
00027cc8 g     O .bss	00000001 __lock___atexit_recursive_mutex
0001ddc4 g     F .text	00000078 _wcrtomb_r
000174cc g     F .text	00000090 _signal_r
0000243c g     F .text	00000218 xTaskAbortDelay
00017bd4 g     F .text	00000078 __sseek
000114c4 g     F .text	000001b0 __sinit
00003818 g     F .text	00000160 vTaskGetInfo
0001dc3c g     F .text	00000174 __swbuf_r
0000c5d8 g     F .text	000000e0 vQueueWaitForMessageRestricted
0001c4fc g     F .text	0000007c _setlocale_r
00011444 g     F .text	0000006c __sfmoreglue
00024450 g       *ABS*	00000000 __tls_base
000080f4 g     F .text	00000124 __malloc_unlock
00000c18 g     F .text	00000140 xTaskDelayUntil
00021bf0 g     F .text	00000194 .hidden __floatsitf
00026014 g     O .rwdata	00000004 xCriticalNesting
00027cb0 g     O .bss	00000001 __lock___arc4random_mutex
00008a7c g     F .text	00000228 xEventGroupSync
00015a84 g     F .text	0000011c memmove
00005380 g     F .text	000000dc ulTaskGenericNotifyValueClear
00026010 g     O .rwdata	00000004 pullNextTime
000114b0 g     F .text	00000014 _cleanup
0000ab78 g     F .text	00000200 xQueueGenericSendFromISR
00001e98 g     F .text	0000005c pcTaskGetName
00015ba0 g     F .text	000000a8 _Balloc
00027cac g     O .bss	00000004 __stack_chk_guard
00026040 g     O .rwdata	00000004 __atexit_recursive_mutex
0001bf78 g     F .text	0000000c __errno
00014f8c g     F .text	00000004 __retarget_lock_close
0000c840 g     F .text	00000078 xQueueSelectFromSet
00000000 g     F .entry	00000004 __reset
0000a5f4 g     F .text	000000ac xQueueGiveMutexRecursive
00014f64 g     F .text	00000008 __localeconv_l
00027c50 g     O .bss	00000004 pxCurrentTCB
00000020 g       *ABS*	00000000 __flash_exceptions_start
0001c444 g     F .text	00000060 _fstat_r
00027ca8 g     O .bss	00000004 errno
00017b44 g     F .text	00000008 __seofread
00009408 g     F .text	00000048 uxEventGroupGetNumber
00027c60 g     O .bss	00000004 alt_argv
00001028 g     F .text	000002f8 vTaskPrioritySet
00027c70 g     O .bss	00000004 alt_heapsem
00003400 g     F .text	00000040 vTaskInternalSetTimeOutState
00008ca4 g     F .text	00000274 xEventGroupWaitBits
000254e8 g     O .rwdata	00000180 alt_fd_list
0000c8b8 g     F .text	00000074 xQueueSelectFromSetFromISR
00009880 g     F .text	0000005c xPortStartScheduler
00001a58 g     F .text	00000034 vTaskEndScheduler
00022fe4 g     F .text	00000120 alt_find_dev
0000d69c g     F .text	000001a4 memcpy
00002b94 g     F .text	00000068 vTaskPlaceOnEventList
000030e4 g     F .text	00000288 vTaskRemoveFromUnorderedEventList
000113b8 g     F .text	0000000c _cleanup_r
00017db0 g     F .text	00002a34 _svfprintf_r
00009700  w    F .text	00000180 vPortSetupTimerInterrupt
0000d610 g     F .text	00000028 alt_niosv_timer_sc_isr
0000d100 g     F .text	00000078 alt_io_redirect
0000ba98 g     F .text	000000e4 xQueuePeekFromISR
0000dad8 g     F .text	00000010 puts
00008450 g     F .text	0000010c vPortFree
0002344c g       *ABS*	00000000 __fini_array_end
00005b70 g     F .text	00000048 pcTimerGetName
00009d64 g       .text	00000000 freertos_risc_v_mtimer_interrupt_handler
00016b8c g     F .text	000000a8 __ratio
0000c798 g     F .text	000000a8 xQueueRemoveFromSet
0000b23c g     F .text	000003dc xQueueSemaphoreTake
0000bd40 g     F .text	00000028 uxQueueGetQueueNumber
0000664c g     F .text	000000c8 xTimerPendFunctionCall
0000761c g     F .text	000003ec altera_avalon_jtag_uart_read
0000d91c g     F .text	00000040 _printf_r
0001f078 g     F .text	00000154 .hidden __letf2
0001755c g     F .text	000000c4 _raise_r
00022540 g     F .text	000000c0 _fstat
0001be24 g     F .text	00000058 __assert_func
00009450 g     F .text	00000030 vEventGroupSetNumber
00023b38 g     O .rodata	000000c8 __mprec_tens
000001b4 g     F .exceptions	00000108 handle_trap
0000a4f8 g     F .text	000000a0 xQueueGetMutexHolder
0000950c g     F .text	00000088 vListInsertEnd
00027cdc g     O .bss	00000004 __malloc_top_pad
000043c0 g     F .text	0000019c ulTaskGenericNotifyTake
000179fc g     F .text	00000004 _getpid_r
00027c88 g     O .bss	00000004 alt_fd_list_lock
00008a28 g     F .text	00000054 xEventGroupCreate
00027c8c g     O .bss	00000004 __dso_handle
00014f6c g     F .text	0000000c _localeconv_r
00016044 g     F .text	000000b0 __i2b
00011d08 g     F .text	0000049c __sfvwrite_r
00017620 g     F .text	000000e0 __sigtramp_r
00017418 g     F .text	00000058 _sbrk_r
000092d8 g     F .text	00000038 vEventGroupSetBitsCallback
000017a0 g     F .text	000001d0 xTaskResumeFromISR
0001c6d8 g     F .text	00000064 _read_r
000094e4 g     F .text	00000028 vListInitialiseItem
0002602c g     O .rwdata	00000004 alt_max_fd
00002074 g     F .text	0000012c xTaskGetHandle
0001bf84 g     F .text	00000178 _fclose_r
0000af30 g     F .text	0000030c xQueueReceive
0003b76c g     O .bss	00000040 xQueueRegistry
000112ec g     F .text	000000cc fflush
00027cd8 g     O .bss	00000004 __malloc_max_sbrked_mem
00000fd8 g     F .text	00000050 uxTaskPriorityGetFromISR
0000dd40 g     F .text	0000001c __stack_chk_init
00016918 g     F .text	0000011c __b2d
0000c488 g     F .text	000000a0 pcQueueGetName
00005aec g     F .text	00000034 uxTimerGetReloadMode
00027cbc g     O .bss	00000001 __lock___env_recursive_mutex
0002266c g     F .text	000000fc _isatty
00027cd0 g     O .bss	00000001 __lock___sinit_recursive_mutex
00005948 g     F .text	00000048 xTimerGetPeriod
00024430 g     O .rodata	00000004 _global_impure_ptr
00009068 g     F .text	000001c4 xEventGroupSetBits
00016e10 g     F .text	00000558 _realloc_r
0003b7d4 g       *ABS*	00000000 __bss_end
0000cea8 g     F .text	0000017c alt_iic_isr_register
0000c6b8 g     F .text	00000040 xQueueCreateSet
0000d284 g     F .text	00000160 alt_tick
0001c284 g     F .text	000000cc _fputwc_r
00023c28 g     O .rodata	00000028 __mprec_bigtens
00015db8 g     F .text	00000134 __s2b
0001df0c g     F .text	00000018 abort
00022b0c g     F .text	00000168 _open
00022dc8 g     F .text	000000cc _sbrk
00016608 g     F .text	00000058 __mcmp
0000dc9c g     F .text	00000098 __stack_chk_fail
00008218 g     F .text	00000238 pvPortMalloc
00024450 g       *ABS*	00000000 __tbss_start
0000d638 g     F .text	0000001c alt_niosv_mtimecmp_interrupt_init
00011800 g     F .text	00000030 __fp_lock_all
0000bce8 g     F .text	00000058 vQueueDelete
000098dc g     F .text	00000014 vPortEndScheduler
00009480 g     F .text	00000064 vListInitialise
0000d1ec g     F .text	00000098 alt_alarm_stop
000000c0 g     F .exceptions	000000f4 alt_irq_handler
000254c0 g     O .rwdata	00000028 alt_dev_null
00001e18 g     F .text	0000002c xTaskGetTickCount
0000a7e4 g     F .text	00000394 xQueueGenericSend
00011860 g     F .text	0000005c __libc_fini_array
0000d4c4 g     F .text	00000084 alt_niosv_mtime_get
0000db7c g     F .text	00000120 _reclaim_reent
0000cbd0 g     F .text	00000048 alt_dcache_flush_all
00015eec g     F .text	00000078 __hi0bits
000021a0 g     F .text	000001f4 uxTaskGetSystemState
00004f84 g     F .text	00000328 vTaskGenericNotifyGiveFromISR
00003e90 g     F .text	00000228 xTaskPriorityDisinherit
00027cc0 g     O .bss	00000001 __lock___malloc_recursive_mutex
00000000 g       *ABS*	00000000 __tdata_size
00026050 g       *ABS*	00000000 __ram_rwdata_end
00009f00 g       .text	00000000 freertos_risc_v_trap_handler
00006a9c g     F .text	00000080 freertos_risc_v_application_interrupt_handler
00009a10 g       .text	00000000 freertos_risc_v_exception_handler
00026024 g     O .rwdata	00000008 alt_dev_list
0000de44 g     F .text	00000018 write
0000d4a0 g     F .text	00000024 alt_timestamp_freq
00000000 g       *ABS*	00000000 __tbss_size
00006a80 g     F .text	0000001c vApplicationMallocFailedHook
00002de8 g     F .text	000002fc xTaskRemoveFromEventList
00024450 g       *ABS*	00000000 __ram_rodata_end
00023430 g     F .text	00000014 fstat
00008f18 g     F .text	000000c8 xEventGroupClearBits
000069dc g     F .text	00000050 vApplicationTickHook
0000b618 g     F .text	00000314 xQueuePeek
00021af4 g     F .text	000000fc .hidden __fixtfsi
00016328 g     F .text	00000150 __pow5mult
0003b7d4 g       *ABS*	00000000 end
00024424 g     O .rodata	00000004 xISRStackTop
00000a50 g     F .text	000001c8 vTaskDelete
0000cc44 g     F .text	0000003c alt_dev_reg
00014fb0 g     F .text	00000004 __retarget_lock_release_recursive
0000c528 g     F .text	000000b0 vQueueUnregisterQueue
00014fa4 g     F .text	00000008 __retarget_lock_try_acquire_recursive
00006de4 g     F .text	00000140 altera_avalon_jtag_uart_init
00006b1c g     F .text	00000080 freertos_risc_v_application_exception_handler
0000437c g     F .text	00000044 pvTaskIncrementMutexHeldCount
00040000 g       *ABS*	00000000 __alt_stack_pointer
0001df24 g     F .text	00000088 .hidden __clzsi2
00007a08 g     F .text	000003fc altera_avalon_jtag_uart_write
000117d0 g     F .text	0000000c __sfp_lock_acquire
000159c0 g     F .text	000000c4 memchr
00017a00 g     F .text	0000006c _sprintf_r
00003440 g     F .text	0000017c xTaskCheckForTimeOut
000119fc g     F .text	0000030c _free_r
00003c40 g     F .text	00000250 xTaskPriorityInherit
00006714 g     F .text	00000028 uxTimerGetTimerNumber
0001c578 g     F .text	0000000c __locale_mb_cur_max
00010e10 g     F .text	00000140 __call_exitprocs
0000455c g     F .text	00000204 xTaskGenericNotifyWait
00026044 g     O .rwdata	00000004 __malloc_sbrk_base
000003c8 g     F .text	000000bc _start
00027c90 g     O .bss	00000004 _alt_tick_rate
00001a8c g     F .text	00000030 vTaskSuspendAll
00000dcc g     F .text	00000184 eTaskGetState
00014f9c g     F .text	00000008 __retarget_lock_try_acquire
00001e44 g     F .text	00000030 xTaskGetTickCountFromISR
000069b4 g     F .text	00000028 alt_set_thread_pointer
000228f4 g     F .text	000000e0 _lseek
00016478 g     F .text	00000190 __lshift
0001f078 g     F .text	00000154 .hidden __lttf2
00027c98 g     O .bss	00000008 _alt_nticks
000177c4 g     F .text	00000098 signal
0001ee50 g     F .text	000000d0 .hidden __netf2
0000d5a4 g     F .text	0000006c alt_niosv_mtimecmp_get
00006bd4 g     F .text	0000009c alt_sys_init
0001c8b8 g     F .text	000001c8 __ssprint_r
00009668 g     F .text	00000098 uxListRemove
00016dac g     F .text	00000064 _open_r
00024450 g       *ABS*	00000000 __tdata_source
00010d24 g     F .text	000000ec __register_exitproc
00014eec g     F .text	00000078 _ldcheck
00009c14 g       .text	00000000 freertos_risc_v_interrupt_handler
000160f4 g     F .text	00000234 __multiply
000074b0 g     F .text	0000006c altera_avalon_jtag_uart_close
00026018 g     O .rwdata	00000004 pxCriticalNesting
00024450 g       *ABS*	00000000 __ram_rwdata_start
00017d04 g     F .text	000000ac strncpy
00023450 g       *ABS*	00000000 __ram_rodata_start
0003b7ac g     O .bss	00000028 __malloc_current_mallinfo
000015c0 g     F .text	000001e0 vTaskResume
00016a34 g     F .text	00000158 __d2b
00002a18 g     F .text	0000017c vTaskSwitchContext
00027ca0 g     O .bss	00000008 alt_niosv_timestamp_offset
00005990 g     F .text	000000bc vTimerSetReloadMode
00027c58 g     O .bss	00000004 alt_niosv_timer_interrupt_handler
00006c70 g     F .text	00000064 altera_avalon_jtag_uart_read_fd
00023240 g     F .text	000001f0 alt_get_fd
00002d04 g     F .text	000000e4 vTaskPlaceOnEventListRestricted
00021d84 g     F .text	00000260 .hidden __extenddftf2
00010f68 g     F .text	00000058 _close_r
00006d38 g     F .text	00000054 altera_avalon_jtag_uart_close_fd
0003b7d4 g       *ABS*	00000000 __alt_stack_base
00006d8c g     F .text	00000058 altera_avalon_jtag_uart_ioctl_fd
00014f90 g     F .text	00000004 __retarget_lock_close_recursive
000057cc g     F .text	0000013c xTimerGenericCommand
0000362c g     F .text	00000040 vTaskSetTaskNumber
00010be0 g     F .text	00000144 __swsetup_r
00006a48 g     F .text	00000038 vApplicationStackOverflowHook
00001320 g     F .text	0000021c vTaskSuspend
0001dfac g     F .text	00000780 .hidden __divdf3
00011674 g     F .text	0000015c __sfp
00016ce0 g     F .text	00000068 __copybits
00002394 g     F .text	000000a8 xTaskCatchUpTicks
00001e74 g     F .text	00000024 uxTaskGetNumberOfTasks
00025a90 g     O .rwdata	00000408 __malloc_av_
000117f4 g     F .text	0000000c __sinit_lock_release
0001e72c g     F .text	00000724 .hidden __muldf3
000065a0 g     F .text	000000ac xTimerPendFunctionCallFromISR
00017ae8 g     F .text	0000005c __sread
00023104 g     F .text	0000013c alt_find_file
0000cccc g     F .text	000000a8 alt_dev_llist_insert
00007f98 g     F .text	0000015c __malloc_lock
0002344c g       *ABS*	00000000 __fini_array_start
0000a6a0 g     F .text	000000b8 xQueueTakeMutexRecursive
0001120c g     F .text	000000e0 _fflush_r
0000922c g     F .text	000000ac vEventGroupDelete
0001be90 g     F .text	000000e8 _calloc_r
00004760 g     F .text	000003d8 xTaskGenericNotify
00014f98 g     F .text	00000004 __retarget_lock_acquire_recursive
00027c50 g       *ABS*	00000000 __bss_start
00024450 g       *ABS*	00000000 __tdata_start
00024450 g       *ABS*	00000000 __tdata_end
000035e4 g     F .text	00000048 uxTaskGetTaskNumber
0000d840 g     F .text	000000dc memset
00000360 g     F .text	00000068 main
00027c64 g     O .bss	00000004 alt_envp
00027cd4 g     O .bss	00000004 __malloc_max_total_mem
00006cd4 g     F .text	00000064 altera_avalon_jtag_uart_write_fd
00014f88 g     F .text	00000004 __retarget_lock_init_recursive
0001ddb0 g     F .text	00000014 __swbuf
00009594 g     F .text	000000d4 vListInsert
00008fe0 g     F .text	0000004c xEventGroupClearBitsFromISR
00017c4c g     F .text	00000008 __sclose
00040000 g       *ABS*	00000000 __alt_heap_limit
0001c0fc g     F .text	00000010 fclose
00005620 g     F .text	00000080 xTimerCreateTimerTask
0000d408 g     F .text	00000040 alt_timestamp_start
0002344c g       *ABS*	00000000 __init_array_end
0001521c g     F .text	000007a4 _malloc_r
0001dedc g     F .text	00000030 __ascii_wctomb
0000bd98 g     F .text	00000028 ucQueueGetQueueType
00026030 g     O .rwdata	00000004 alt_errno
0001c10c g     F .text	00000038 _fiprintf_r
0001785c g     F .text	00000060 _init_signal
00007f00 g     F .text	00000098 __env_unlock
000121a4 g     F .text	000000a4 _fwalk
0000b92c g     F .text	0000016c xQueueReceiveFromISR
0001c664 g     F .text	0000000c _mbtowc_r
00003bc0 g     F .text	0000002c xTaskGetCurrentTaskHandle
0000a2b8 g     F .text	000000f0 xQueueGenericCreate
000118bc g     F .text	00000140 _malloc_trim_r
0001c73c g     F .text	0000017c strcmp
0000a758 g     F .text	0000008c xQueueCreateCountingSemaphore
00023450 g       *ABS*	00000000 __flash_rodata_start
00027c68 g     O .bss	00000004 ulHalNestedInterruptCounter
0001bd14 g     F .text	00000018 vfiprintf
00014f84 g     F .text	00000004 __retarget_lock_init
0001f1cc g     F .text	000011ac .hidden __multf3
00004b38 g     F .text	0000044c xTaskGenericNotifyFromISR
0000bd68 g     F .text	00000030 vQueueSetQueueNumber
00006b9c g     F .text	00000038 alt_irq_init
0000d178 g     F .text	00000074 alt_release_fd
00001abc g     F .text	0000035c xTaskResumeAll
00026004 g     O .rwdata	00000004 uxTopUsedPriority
0000bc00 g     F .text	00000098 uxQueueSpacesAvailable
00017a6c g     F .text	0000007c sprintf
00024320 g     O .rodata	00000100 .hidden __clz_tab
00001970 g     F .text	000000e8 vTaskStartScheduler
00027ce0 g     O .bss	00000004 _PathLocale
0000d654 g     F .text	00000014 atexit
00010b7c g     F .text	00000064 _write_r
00009950 g       .text	00000000 xPortStartFirstTask
0001c584 g     F .text	0000007c setlocale
0000c320 g     F .text	00000068 xQueueIsQueueFullFromISR
00006934 g     F .text	00000080 alt_init_tls_block
00006488 g     F .text	0000008c pvTimerGetTimerID
0002603c g     O .rwdata	00000004 _impure_ptr
00027c5c g     O .bss	00000004 alt_argc
00005b20 g     F .text	00000050 xTimerGetExpiryTime
00010fc0 g     F .text	0000024c __sflush_r
00027c84 g     O .bss	00000004 xTaskReturnAddress
0000cdd4 g     F .text	00000060 _do_dtors
0001ef20 g     F .text	00000158 .hidden __gttf2
0001ca80 g     F .text	000011bc _svfiprintf_r
0001c670 g     F .text	00000068 __ascii_mbtowc
00020378 g     F .text	0000177c .hidden __subtf3
000168b0 g     F .text	00000068 __ulp
00011830 g     F .text	00000030 __fp_unlock_all
000035bc g     F .text	00000028 vTaskMissedYield
0002601c g     O .rwdata	00000008 alt_fs_list
0000bb7c g     F .text	00000084 uxQueueMessagesWaiting
0000c388 g     F .text	00000100 vQueueAddToRegistry
00002654 g     F .text	000003c4 xTaskIncrementTick
00000020 g       *ABS*	00000000 __ram_exceptions_start
00014f78 g     F .text	0000000c localeconv
0000d448 g     F .text	00000058 alt_timestamp
00027c80 g     O .bss	00000004 pullMachineTimerCompareRegister
00000000 g       *ABS*	00000000 __alt_mem_onchip_memory2
00015144 g     F .text	000000d8 __swhatbuf_r
0000ce54 g     F .text	00000054 alt_ic_isr_register
00000020 g       .exceptions	00000000 trap_vector
0000a0f0 g     F .text	000001c8 xQueueGenericReset
00006514 g     F .text	0000008c vTimerSetTimerID
00022ee0 g     F .text	00000104 _write
00026050 g       *ABS*	00000000 _edata
0003b7d4 g       *ABS*	00000000 _end
0001c190 g     F .text	000000f4 __fputwc
000002bc g       *ABS*	00000000 __ram_exceptions_end
00027cc4 g     O .bss	00000001 __lock___at_quick_exit_mutex
0000751c g     F .text	00000100 altera_avalon_jtag_uart_ioctl
0000d3e4 g     F .text	00000024 intel_niosv_irq_init
00000484 g     F .text	000000ec xTaskCreate
000085a4 g     F .text	0000001c vPortInitialiseBlocks
000052ac g     F .text	000000d4 xTaskGenericNotifyStateClear
000063e8 g     F .text	000000a0 xTimerIsTimerActive
00017b4c g     F .text	00000088 __swrite
00026048 g     O .rwdata	00000004 __malloc_trim_threshold
0000d668 g     F .text	00000034 exit
0001c144 g     F .text	0000004c fiprintf
0001a8f0 g     F .text	00001424 _vfiprintf_r
00012248 g     F .text	000000b4 _fwalk_reent
00024428 g     O .rodata	00000004 uxTimerIncrementsForOneTick
00016660 g     F .text	00000250 __mdiff
000227b4 g     F .text	000000f4 _kill
00000d58 g     F .text	00000074 vTaskDelay
00040000 g       *ABS*	00000000 __alt_data_end
00024450 g       *ABS*	00000000 __tbss_end
000117dc g     F .text	0000000c __sfp_lock_release
00013bd4 g     F .text	00001318 _ldtoa_r
00005a4c g     F .text	000000a0 xTimerGetReloadMode
00003bec g     F .text	00000054 xTaskGetSchedulerState
000241dc g     O .rodata	00000101 _ctype_
000040b8 g     F .text	00000274 vTaskPriorityDisinheritAfterTimeout
00022cc0 g     F .text	00000108 _read
00023444 g       *ABS*	00000000 __init_array_start
00014f94 g     F .text	00000004 __retarget_lock_acquire
00014fac g     F .text	00000004 __retarget_lock_release
000224b4 g     F .text	00000040 _exit
0000ca64 g     F .text	0000016c alt_alarm_start
00027cb4 g     O .bss	00000001 __lock___dd_hash_mutex
00014fb4 g     F .text	00000190 __smakebuf_r
00027cb8 g     O .bss	00000001 __lock___tz_mutex
0000dd5c g     F .text	0000008c strlen
000098f0 g       .text	00000000 pxPortInitialiseStack
00017470 g     F .text	0000005c _init_signal_r
0000ddf8 g     F .text	0000004c open
0000a598 g     F .text	0000005c xQueueGetMutexHolderFromISR
0000c6f8 g     F .text	000000a0 xQueueAddToSet
0001be7c g     F .text	00000014 __assert
000088cc g     F .text	0000015c vPortGetHeapStats
0001a8d8 g     F .text	00000018 __sprint_r
0000ce34 g     F .text	00000020 alt_icache_flush_all
0000336c g     F .text	00000094 vTaskSetTimeOutState
00005908 g     F .text	00000040 xTimerGetTimerDaemonTaskHandle
0000d548 g     F .text	0000005c alt_niosv_mtimecmp_set
0000673c g     F .text	00000030 vTimerSetTimerNumber
0001ded0 g     F .text	0000000c _wctomb_r
0000bc98 g     F .text	00000050 uxQueueMessagesWaitingFromISR
00007e04 g     F .text	000000fc __env_lock
0000c23c g     F .text	00000060 xQueueIsQueueEmptyFromISR
00027c78 g     O .bss	00000008 ullNextTime
0000de5c g     F .text	00002c10 _vfprintf_r
0002442c g     O .rodata	00000004 ullMachineTimerCompareRegisterBase
00015f64 g     F .text	000000e0 __lo0bits
00026034 g     O .rwdata	00000008 alt_alarm_list
0000cd74 g     F .text	00000060 _do_ctors
000178bc g     F .text	000000e0 __sigtramp
0000432c g     F .text	00000050 uxTaskResetEventItemValue
0001de3c g     F .text	00000094 wcrtomb
0000a49c g     F .text	0000005c xQueueCreateMutex
00017368 g     F .text	000000b0 frexp
0000dde8 g     F .text	00000010 close
00027c6c g     O .bss	00000004 alt_envsem
00025e98 g     O .rwdata	0000016c __global_locale
000067d0 g     F .text	00000074 alt_load
00010a6c g     F .text	00000018 vfprintf
00027c54 g     O .bss	00000004 alt_niosv_software_interrupt_handler
00021fe4 g     F .text	000003a4 .hidden __trunctfdf2
00027ccc g     O .bss	00000001 __lock___sfp_recursive_mutex
00009310 g     F .text	00000038 vEventGroupClearBitsCallback
00008580 g     F .text	00000024 xPortGetMinimumEverFreeHeapSize
0000ad78 g     F .text	000001b8 xQueueGiveFromISR
0001c350 g     F .text	000000f4 fputwc
000223d4 g     F .text	000000e0 _close
00017700 g     F .text	000000c4 raise
000117e8 g     F .text	0000000c __sinit_lock_acquire
00015c6c g     F .text	0000014c __multadd
00015c48 g     F .text	00000024 _Bfree
00006a2c g     F .text	0000001c vApplicationIdleHook



Disassembly of section .entry:

00000000 <__reset>:
 * Jump to the _start entry point in the .text section if reset code
 * is allowed or if optimizing for RTL simulation.
 */

    /* Jump to the _start entry point in the .text section. */
    tail _start
   0:	3c80006f          	j	3c8 <_start>
	...

Disassembly of section .exceptions:

00000020 <trap_vector>:
    /* Save caller-saved registers on the stack */

#if __riscv_flen == 32 // rv32if
    addi sp, sp, -36 * 4
#elif ALT_CPU_NUM_GPR == 32 // rv32i
    addi sp, sp, -16 * 4
  20:	fc010113          	addi	sp,sp,-64
#else // rv32e (16-bit)
    addi sp, sp, -10 * 4
#endif

    /* rv32e (16-bit), rv32i and rv32if */
    sw ra,  0 * 4(sp)
  24:	00112023          	sw	ra,0(sp)
    sw t0,  1 * 4(sp)
  28:	00512223          	sw	t0,4(sp)
    sw t1,  2 * 4(sp)
  2c:	00612423          	sw	t1,8(sp)
    sw t2,  3 * 4(sp)
  30:	00712623          	sw	t2,12(sp)
    sw a0,  4 * 4(sp)
  34:	00a12823          	sw	a0,16(sp)
    sw a1,  5 * 4(sp)
  38:	00b12a23          	sw	a1,20(sp)
    sw a2,  6 * 4(sp)
  3c:	00c12c23          	sw	a2,24(sp)
    sw a3,  7 * 4(sp)
  40:	00d12e23          	sw	a3,28(sp)
    sw a4,  8 * 4(sp)
  44:	02e12023          	sw	a4,32(sp)
    sw a5,  9 * 4(sp)
  48:	02f12223          	sw	a5,36(sp)

    /* rv32i and rv32if */
#if ALT_CPU_NUM_GPR == 32 
    sw a6, 10 * 4(sp)
  4c:	03012423          	sw	a6,40(sp)
    sw a7, 11 * 4(sp)
  50:	03112623          	sw	a7,44(sp)
    sw t3, 12 * 4(sp)
  54:	03c12823          	sw	t3,48(sp)
    sw t4, 13 * 4(sp)
  58:	03d12a23          	sw	t4,52(sp)
    sw t5, 14 * 4(sp)
  5c:	03e12c23          	sw	t5,56(sp)
    sw t6, 15 * 4(sp)
  60:	03f12e23          	sw	t6,60(sp)
    fsw fa6, 34 * 4(sp)
    fsw fa7, 35 * 4(sp)
#endif
    
    /* Call handle_trap to dispatch the correct handler, if available */
    csrr a0, mcause
  64:	34202573          	csrr	a0,mcause
    csrr a1, mepc
  68:	341025f3          	csrr	a1,mepc
    csrr a2, mtval
  6c:	34302673          	csrr	a2,mtval
    jal handle_trap
  70:	144000ef          	jal	ra,1b4 <handle_trap>
    csrw mepc, a0
  74:	34151073          	csrw	mepc,a0

    /* Restore caller-saved registers */

    /* rv32e (16-bit), rv32i and rv32if */
    lw ra,  0 * 4(sp)
  78:	00012083          	lw	ra,0(sp)
    lw t0,  1 * 4(sp)
  7c:	00412283          	lw	t0,4(sp)
    lw t1,  2 * 4(sp)
  80:	00812303          	lw	t1,8(sp)
    lw t2,  3 * 4(sp)
  84:	00c12383          	lw	t2,12(sp)
    lw a0,  4 * 4(sp)
  88:	01012503          	lw	a0,16(sp)
    lw a1,  5 * 4(sp)
  8c:	01412583          	lw	a1,20(sp)
    lw a2,  6 * 4(sp)
  90:	01812603          	lw	a2,24(sp)
    lw a3,  7 * 4(sp)
  94:	01c12683          	lw	a3,28(sp)
    lw a4,  8 * 4(sp)
  98:	02012703          	lw	a4,32(sp)
    lw a5,  9 * 4(sp)
  9c:	02412783          	lw	a5,36(sp)

    /* rv32i and rv32if */
#if ALT_CPU_NUM_GPR == 32	
    lw a6, 10 * 4(sp)
  a0:	02812803          	lw	a6,40(sp)
    lw a7, 11 * 4(sp)
  a4:	02c12883          	lw	a7,44(sp)
    lw t3, 12 * 4(sp)
  a8:	03012e03          	lw	t3,48(sp)
    lw t4, 13 * 4(sp)
  ac:	03412e83          	lw	t4,52(sp)
    lw t5, 14 * 4(sp)
  b0:	03812f03          	lw	t5,56(sp)
    lw t6, 15 * 4(sp)
  b4:	03c12f83          	lw	t6,60(sp)
#endif

#if __riscv_flen == 32 // rv32if
    addi sp, sp, 36 * 4
#elif ALT_CPU_NUM_GPR == 32 // rv32i
	addi sp, sp, 16 * 4
  b8:	04010113          	addi	sp,sp,64
    lw s0, 0(sp)
    lw s1, 4(sp)
    addi sp, sp, 8
#endif

    mret
  bc:	30200073          	mret

000000c0 <alt_irq_handler>:
 * This means that if there is never a call to alt_irq_register() then
 * this function will not get linked in to the executable. This is acceptable
 * since if no handler is ever registered, then an interrupt can never occur.
 */
void alt_irq_handler (void)
{
  c0:	fd010113          	addi	sp,sp,-48
  c4:	02112623          	sw	ra,44(sp)
  c8:	02812423          	sw	s0,40(sp)
  cc:	03010413          	addi	s0,sp,48
    alt_u32 i;

    /*
     * Notify the operating system that we are at interrupt level.
     */  
    ALT_OS_INT_ENTER();
  d0:	00000013          	nop
{
#if ALT_HAS_IRQ_SUPPORT
    alt_u32 active;
    alt_u32 enabled;

    NIOSV_READ_CSR(NIOSV_MIP_CSR, active);
  d4:	344027f3          	csrr	a5,mip
  d8:	fef42023          	sw	a5,-32(s0)
    NIOSV_READ_CSR(NIOSV_MIE_CSR, enabled);
  dc:	304027f3          	csrr	a5,mie
  e0:	fef42223          	sw	a5,-28(s0)

    // Since this is used by alt_irq_handler, we want to only process the upper 16-bits
    // --> the interrupt lines connected via Platform Designer...
    return (active & enabled) >> 16;
  e4:	fe042703          	lw	a4,-32(s0)
  e8:	fe442783          	lw	a5,-28(s0)
  ec:	00f777b3          	and	a5,a4,a5
  f0:	0107d793          	srli	a5,a5,0x10
     * reduced by finding out which interrupts are pending as late as possible.
     * Consider the case where the high priority interupt is asserted during
     * the interrupt entry sequence for a lower priority interrupt to see why
     * this is the case.
     */
    active = alt_irq_pending();
  f4:	fcf42a23          	sw	a5,-44(s0)

    do
    {
        i = 0;
  f8:	fc042e23          	sw	zero,-36(s0)
        mask = 1;
  fc:	00100793          	li	a5,1
 100:	fcf42c23          	sw	a5,-40(s0)
         * called to clear the interrupt condition.
         */

        do
        {
            if (active & mask)
 104:	fd442703          	lw	a4,-44(s0)
 108:	fd842783          	lw	a5,-40(s0)
 10c:	00f777b3          	and	a5,a4,a5
 110:	06078263          	beqz	a5,174 <alt_irq_handler+0xb4>
            {
                alt_irq[i].handler(alt_irq[i].context); 
 114:	000287b7          	lui	a5,0x28
 118:	e4878713          	addi	a4,a5,-440 # 27e48 <alt_irq>
 11c:	fdc42783          	lw	a5,-36(s0)
 120:	00379793          	slli	a5,a5,0x3
 124:	00f707b3          	add	a5,a4,a5
 128:	0007a703          	lw	a4,0(a5)
 12c:	000287b7          	lui	a5,0x28
 130:	e4878693          	addi	a3,a5,-440 # 27e48 <alt_irq>
 134:	fdc42783          	lw	a5,-36(s0)
 138:	00379793          	slli	a5,a5,0x3
 13c:	00f687b3          	add	a5,a3,a5
 140:	0047a783          	lw	a5,4(a5)
 144:	00078513          	mv	a0,a5
 148:	000700e7          	jalr	a4
                break;
 14c:	00000013          	nop
    NIOSV_READ_CSR(NIOSV_MIP_CSR, active);
 150:	344027f3          	csrr	a5,mip
 154:	fef42423          	sw	a5,-24(s0)
    NIOSV_READ_CSR(NIOSV_MIE_CSR, enabled);
 158:	304027f3          	csrr	a5,mie
 15c:	fef42623          	sw	a5,-20(s0)
    return (active & enabled) >> 16;
 160:	fe842703          	lw	a4,-24(s0)
 164:	fec42783          	lw	a5,-20(s0)
 168:	00f777b3          	and	a5,a4,a5
 16c:	0107d793          	srli	a5,a5,0x10
 170:	0200006f          	j	190 <alt_irq_handler+0xd0>
            }
            
            mask <<= 1;
 174:	fd842783          	lw	a5,-40(s0)
 178:	00179793          	slli	a5,a5,0x1
 17c:	fcf42c23          	sw	a5,-40(s0)
            i++;
 180:	fdc42783          	lw	a5,-36(s0)
 184:	00178793          	addi	a5,a5,1
 188:	fcf42e23          	sw	a5,-36(s0)
            if (active & mask)
 18c:	f79ff06f          	j	104 <alt_irq_handler+0x44>
            
        } while (1);

        active = alt_irq_pending();
 190:	fcf42a23          	sw	a5,-44(s0)
    
    } while (active);
 194:	fd442783          	lw	a5,-44(s0)
 198:	f60790e3          	bnez	a5,f8 <alt_irq_handler+0x38>

    /*
     * Notify the operating system that interrupt processing is complete.
     */ 

    ALT_OS_INT_EXIT();
 19c:	00000013          	nop
}
 1a0:	00000013          	nop
 1a4:	02c12083          	lw	ra,44(sp)
 1a8:	02812403          	lw	s0,40(sp)
 1ac:	03010113          	addi	sp,sp,48
 1b0:	00008067          	ret

000001b4 <handle_trap>:
{
 1b4:	fd010113          	addi	sp,sp,-48
 1b8:	02112623          	sw	ra,44(sp)
 1bc:	02812423          	sw	s0,40(sp)
 1c0:	03010413          	addi	s0,sp,48
 1c4:	fca42e23          	sw	a0,-36(s0)
 1c8:	fcb42c23          	sw	a1,-40(s0)
 1cc:	fcc42a23          	sw	a2,-44(s0)
    is_irq = (cause & NIOSV_MCAUSE_INTERRUPT_MASK);
 1d0:	fdc42703          	lw	a4,-36(s0)
 1d4:	800007b7          	lui	a5,0x80000
 1d8:	00f777b3          	and	a5,a4,a5
 1dc:	fef42423          	sw	a5,-24(s0)
    exception_code = (cause & ~NIOSV_MCAUSE_INTERRUPT_MASK);
 1e0:	fdc42703          	lw	a4,-36(s0)
 1e4:	800007b7          	lui	a5,0x80000
 1e8:	fff7c793          	not	a5,a5
 1ec:	00f777b3          	and	a5,a4,a5
 1f0:	fef42623          	sw	a5,-20(s0)
    if (is_irq) {
 1f4:	fe842783          	lw	a5,-24(s0)
 1f8:	08078863          	beqz	a5,288 <handle_trap+0xd4>
        switch (exception_code) {
 1fc:	fec42703          	lw	a4,-20(s0)
 200:	00300793          	li	a5,3
 204:	04f70063          	beq	a4,a5,244 <handle_trap+0x90>
 208:	fec42703          	lw	a4,-20(s0)
 20c:	00700793          	li	a5,7
 210:	06f71263          	bne	a4,a5,274 <handle_trap+0xc0>
                if (alt_niosv_timer_interrupt_handler) {
 214:	000287b7          	lui	a5,0x28
 218:	c587a783          	lw	a5,-936(a5) # 27c58 <alt_niosv_timer_interrupt_handler>
 21c:	06078a63          	beqz	a5,290 <handle_trap+0xdc>
                    ALT_OS_INT_ENTER();
 220:	00000013          	nop
                    alt_niosv_timer_interrupt_handler(cause, epc, tval);
 224:	000287b7          	lui	a5,0x28
 228:	c587a783          	lw	a5,-936(a5) # 27c58 <alt_niosv_timer_interrupt_handler>
 22c:	fd442603          	lw	a2,-44(s0)
 230:	fd842583          	lw	a1,-40(s0)
 234:	fdc42503          	lw	a0,-36(s0)
 238:	000780e7          	jalr	a5
                    ALT_OS_INT_EXIT();
 23c:	00000013          	nop
                break;
 240:	0500006f          	j	290 <handle_trap+0xdc>
                if (alt_niosv_software_interrupt_handler) {
 244:	000287b7          	lui	a5,0x28
 248:	c547a783          	lw	a5,-940(a5) # 27c54 <alt_niosv_software_interrupt_handler>
 24c:	04078663          	beqz	a5,298 <handle_trap+0xe4>
                    ALT_OS_INT_ENTER();
 250:	00000013          	nop
                    alt_niosv_software_interrupt_handler(cause, epc, tval);
 254:	000287b7          	lui	a5,0x28
 258:	c547a783          	lw	a5,-940(a5) # 27c54 <alt_niosv_software_interrupt_handler>
 25c:	fd442603          	lw	a2,-44(s0)
 260:	fd842583          	lw	a1,-40(s0)
 264:	fdc42503          	lw	a0,-36(s0)
 268:	000780e7          	jalr	a5
                    ALT_OS_INT_EXIT();
 26c:	00000013          	nop
                break;
 270:	0280006f          	j	298 <handle_trap+0xe4>
                if (exception_code >= 16) {
 274:	fec42703          	lw	a4,-20(s0)
 278:	00f00793          	li	a5,15
 27c:	02e7f263          	bgeu	a5,a4,2a0 <handle_trap+0xec>
                    alt_irq_handler();
 280:	e41ff0ef          	jal	ra,c0 <alt_irq_handler>
                break;
 284:	01c0006f          	j	2a0 <handle_trap+0xec>
            NIOSV_EBREAK();
 288:	00100073          	ebreak
 28c:	0180006f          	j	2a4 <handle_trap+0xf0>
                break;
 290:	00000013          	nop
 294:	0100006f          	j	2a4 <handle_trap+0xf0>
                break;
 298:	00000013          	nop
 29c:	0080006f          	j	2a4 <handle_trap+0xf0>
                break;
 2a0:	00000013          	nop
    return epc;
 2a4:	fd842783          	lw	a5,-40(s0)
}
 2a8:	00078513          	mv	a0,a5
 2ac:	02c12083          	lw	ra,44(sp)
 2b0:	02812403          	lw	s0,40(sp)
 2b4:	03010113          	addi	sp,sp,48
 2b8:	00008067          	ret

Disassembly of section .text:

00000300 <Task1>:
/**
 * @brief Task 1 implementation. Prints a status message and delays.
 * @param parameters Unused pointer.
 */
static void Task1 (void *parameters)
{
     300:	fe010113          	addi	sp,sp,-32
     304:	00112e23          	sw	ra,28(sp)
     308:	00812c23          	sw	s0,24(sp)
     30c:	02010413          	addi	s0,sp,32
     310:	fea42623          	sw	a0,-20(s0)
    (void) parameters;

    while (1)
    {
        // Print message to the console
        printf("Running task 1 \r\n");
     314:	000237b7          	lui	a5,0x23
     318:	45078513          	addi	a0,a5,1104 # 23450 <__flash_rodata_start>
     31c:	7bc0d0ef          	jal	ra,dad8 <puts>

        // Delay the task for 1000 milliseconds (1 second)
        vTaskDelay(1000 / portTICK_PERIOD_MS);
     320:	3e800513          	li	a0,1000
     324:	235000ef          	jal	ra,d58 <vTaskDelay>
        printf("Running task 1 \r\n");
     328:	00000013          	nop
     32c:	fe9ff06f          	j	314 <Task1+0x14>

00000330 <Task2>:
/**
 * @brief Task 2 implementation. Prints a status message and delays.
 * @param parameters Unused pointer.
 */
static void Task2 (void *parameters)
{
     330:	fe010113          	addi	sp,sp,-32
     334:	00112e23          	sw	ra,28(sp)
     338:	00812c23          	sw	s0,24(sp)
     33c:	02010413          	addi	s0,sp,32
     340:	fea42623          	sw	a0,-20(s0)
    (void) parameters;
    
    while (1)
    {
        // Print message to the console
        printf("Running task 2 \r\n");
     344:	000237b7          	lui	a5,0x23
     348:	46478513          	addi	a0,a5,1124 # 23464 <__flash_rodata_start+0x14>
     34c:	78c0d0ef          	jal	ra,dad8 <puts>

        // Delay the task for 1000 milliseconds (1 second)
        vTaskDelay(1000 / portTICK_PERIOD_MS);
     350:	3e800513          	li	a0,1000
     354:	205000ef          	jal	ra,d58 <vTaskDelay>
        printf("Running task 2 \r\n");
     358:	00000013          	nop
     35c:	fe9ff06f          	j	344 <Task2+0x14>

00000360 <main>:
 * the scheduler.
 *
 * @return Returns 0 (unreachable in a typical embedded FreeRTOS application).
 */
int main (void)
{
     360:	ff010113          	addi	sp,sp,-16
     364:	00112623          	sw	ra,12(sp)
     368:	00812423          	sw	s0,8(sp)
     36c:	01010413          	addi	s0,sp,16
    // Initial message printed upon application start
    printf("Starting NIOS V - FreeRTOS... \r\n");
     370:	000237b7          	lui	a5,0x23
     374:	47878513          	addi	a0,a5,1144 # 23478 <__flash_rodata_start+0x28>
     378:	7600d0ef          	jal	ra,dad8 <puts>
     * @param 1024 Stack depth in words
     * @param NULL Task parameter (unused)
     * @param 2 Priority (higher number means higher priority)
     * @param NULL Task handle (unused)
     */
    xTaskCreate(Task1, "Task1", 1024, NULL, 2, NULL);
     37c:	00000793          	li	a5,0
     380:	00200713          	li	a4,2
     384:	00000693          	li	a3,0
     388:	40000613          	li	a2,1024
     38c:	000235b7          	lui	a1,0x23
     390:	49858593          	addi	a1,a1,1176 # 23498 <__flash_rodata_start+0x48>
     394:	30000513          	li	a0,768
     398:	0ec000ef          	jal	ra,484 <xTaskCreate>
     * @param 1024 Stack depth in words
     * @param NULL Task parameter (unused)
     * @param 2 Priority (same as Task1 for round-robin scheduling)
     * @param NULL Task handle (unused)
     */
    xTaskCreate(Task2, "Task2", 1024, NULL, 2, NULL);
     39c:	00000793          	li	a5,0
     3a0:	00200713          	li	a4,2
     3a4:	00000693          	li	a3,0
     3a8:	40000613          	li	a2,1024
     3ac:	000235b7          	lui	a1,0x23
     3b0:	4a058593          	addi	a1,a1,1184 # 234a0 <__flash_rodata_start+0x50>
     3b4:	33000513          	li	a0,816
     3b8:	0cc000ef          	jal	ra,484 <xTaskCreate>

    // Start the FreeRTOS scheduler. This function will not return.
    vTaskStartScheduler();
     3bc:	5b4010ef          	jal	ra,1970 <vTaskStartScheduler>

    // Loop forever in case the scheduler fails to start (should not happen)
    for( ;; );
     3c0:	00000013          	nop
     3c4:	ffdff06f          	j	3c0 <main+0x60>

000003c8 <_start>:
    .type _start, @function
_start:
#if ALT_CPU_HAS_CSR_SUPPORT
    /* assume that we are in machine mode on startup */
    /* setup trap to catch anything that goes wrong early in the boot process */
    la t0, trap_vector
     3c8:	00000297          	auipc	t0,0x0
     3cc:	c5828293          	addi	t0,t0,-936 # 20 <__flash_exceptions_start>
    csrw mtvec, t0
     3d0:	30529073          	csrw	mtvec,t0

    /* disable all interrupt */
    li t0, 0x88
     3d4:	08800293          	li	t0,136
    csrc mstatus, t0
     3d8:	3002b073          	csrc	mstatus,t0
    csrw mie, zero
     3dc:	30401073          	csrw	mie,zero
    csrw mip, zero
     3e0:	34401073          	csrw	mip,zero
 * RTL simulations can ensure the data cache tag RAM is already
 * initialized so skipping this speeds up RTL simulation.
 */
#ifndef ALT_SIM_OPTIMIZE
#if ALT_CPU_DCACHE_SIZE > 0
    li t0, ALT_CPU_DCACHE_SIZE
     3e4:	000012b7          	lui	t0,0x1
0:
    /* cbo.inval.ix */
    .insn i 0x0F, 0x2, zero, t0, 0x080
     3e8:	0802a00f          	.4byte	0x802a00f
    addi t0, t0, -ALT_CPU_DCACHE_LINE_SIZE
     3ec:	fe028293          	addi	t0,t0,-32 # fe0 <uxTaskPriorityGetFromISR+0x8>
    bnez t0, 0b
     3f0:	fe029ce3          	bnez	t0,3e8 <_start+0x20>
#endif /* Initialize Data Cache */
#endif /* ALT_SIM_OPTIMIZE */

    .option push
    .option norelax
    la gp, __global_pointer$
     3f4:	00026197          	auipc	gp,0x26
     3f8:	41018193          	addi	gp,gp,1040 # 26804 <__global_pointer$>

    /*
     * Now that the caches are initialized, set up the stack pointer and global pointer.
     * The values provided by the linker are assumed to be correctly aligned.
     */
    la sp, __alt_stack_pointer
     3fc:	00040117          	auipc	sp,0x40
     400:	c0410113          	addi	sp,sp,-1020 # 40000 <__alt_data_end>
    /* Log that the BSS is about to be cleared. */
#ifdef ALT_LOG_ENABLE
    ALT_LOG_PUTS(alt_log_msg_bss)
#endif /* ALT_LOG_ENABLE */

    la t1, __bss_start
     404:	00028317          	auipc	t1,0x28
     408:	84c30313          	addi	t1,t1,-1972 # 27c50 <pxCurrentTCB>
    la t2, __bss_end
     40c:	0003b397          	auipc	t2,0x3b
     410:	3c838393          	addi	t2,t2,968 # 3b7d4 <__alt_heap_start>
0:
    sw zero, (t1)
     414:	00032023          	sw	zero,0(t1)
    addi t1, t1, 4
     418:	00430313          	addi	t1,t1,4
    bltu t1, t2, 0b
     41c:	fe736ce3          	bltu	t1,t2,414 <_start+0x4c>
/*
 * The alt_load() facility is normally used when there is no bootloader.
 * It copies some sections into RAM so it acts like a mini-bootloader.
 */
#ifdef CALL_ALT_LOAD
    call alt_load
     420:	3b0060ef          	jal	ra,67d0 <alt_load>
 */
#ifndef ALT_SIM_OPTIMIZE
.globl __tbss_start
.globl __tbss_end

    la t1, __tbss_start
     424:	00024317          	auipc	t1,0x24
     428:	02c30313          	addi	t1,t1,44 # 24450 <jtag_uart>
    la t2, __tbss_end
     42c:	00024397          	auipc	t2,0x24
     430:	02438393          	addi	t2,t2,36 # 24450 <jtag_uart>
    
    // Check if we need to skip this (if .tbss is empty)
    bgeu t1, t2, 1f
     434:	00737863          	bgeu	t1,t2,444 <_start+0x7c>
0:
    sw zero, (t1)
     438:	00032023          	sw	zero,0(t1)
    addi t1, t1, 4
     43c:	00430313          	addi	t1,t1,4
    bltu t1, t2, 0b
     440:	fe736ce3          	bltu	t1,t2,438 <_start+0x70>
// Copy tdata to tdata golden source location
.globl __tdata_start
.globl __tdata_end
.globl __tdata_source

    la t0, __tdata_start
     444:	00024297          	auipc	t0,0x24
     448:	00c28293          	addi	t0,t0,12 # 24450 <jtag_uart>
    la t1, __tdata_end
     44c:	00024317          	auipc	t1,0x24
     450:	00430313          	addi	t1,t1,4 # 24450 <jtag_uart>
    la t2, __tdata_source
     454:	00024397          	auipc	t2,0x24
     458:	ffc38393          	addi	t2,t2,-4 # 24450 <jtag_uart>

    // Check if we need to skip this (if .tdata is empty)
    bgeu t0, t1, 1f
     45c:	0062fc63          	bgeu	t0,t1,474 <_start+0xac>
0:
    lw s1, (t0)
     460:	0002a483          	lw	s1,0(t0)
    sw s1, (t2)
     464:	0093a023          	sw	s1,0(t2)
    addi t0, t0, 4
     468:	00428293          	addi	t0,t0,4
    addi t2, t2, 4
     46c:	00438393          	addi	t2,t2,4
    bltu t0, t1, 0b
     470:	fe62e8e3          	bltu	t0,t1,460 <_start+0x98>
1:

// Assign thread pointer register (tp) to main thread tls base
.globl __tls_base
    la tp, __tls_base
     474:	00024217          	auipc	tp,0x24
     478:	fdc20213          	addi	tp,tp,-36 # 24450 <jtag_uart>
#ifdef ALT_LOG_ENABLE
    ALT_LOG_PUTS(alt_log_msg_alt_main)
#endif /* ALT_LOG_ENABLE */

    /* Call the C entry point. It should never return. */
    call alt_main
     47c:	3c8060ef          	jal	ra,6844 <alt_main>

00000480 <alt_after_alt_main>:

    /* Wait in infinite loop in case alt_main does return. */
alt_after_alt_main:
    j alt_after_alt_main
     480:	0000006f          	j	480 <alt_after_alt_main>

00000484 <xTaskCreate>:
     484:	fc010113          	addi	sp,sp,-64
     488:	02112e23          	sw	ra,60(sp)
                            const char * const pcName, /*lint !e971 Unqualified char types are allowed for strings and single characters only. */
                            const configSTACK_DEPTH_TYPE usStackDepth,
                            void * const pvParameters,
                            UBaseType_t uxPriority,
                            TaskHandle_t * const pxCreatedTask )
    {
     48c:	02812c23          	sw	s0,56(sp)
     490:	04010413          	addi	s0,sp,64
     494:	fca42e23          	sw	a0,-36(s0)
     498:	fcb42c23          	sw	a1,-40(s0)
     49c:	fcd42823          	sw	a3,-48(s0)
     4a0:	fce42623          	sw	a4,-52(s0)
     4a4:	fcf42423          	sw	a5,-56(s0)
     4a8:	00060793          	mv	a5,a2
     4ac:	fcf41b23          	sh	a5,-42(s0)
        #else /* portSTACK_GROWTH */
        {
            StackType_t * pxStack;

            /* Allocate space for the stack used by the task being created. */
            pxStack = pvPortMallocStack( ( ( ( size_t ) usStackDepth ) * sizeof( StackType_t ) ) ); /*lint !e9079 All values returned by pvPortMalloc() have at least the alignment required by the MCU's stack and this allocation is the stack. */
     4b0:	fd645783          	lhu	a5,-42(s0)
     4b4:	00279793          	slli	a5,a5,0x2
     4b8:	00078513          	mv	a0,a5
     4bc:	55d070ef          	jal	ra,8218 <pvPortMalloc>
     4c0:	fea42623          	sw	a0,-20(s0)

            if( pxStack != NULL )
     4c4:	fec42783          	lw	a5,-20(s0)
     4c8:	04078263          	beqz	a5,50c <xTaskCreate+0x88>
            {
                /* Allocate space for the TCB. */
                pxNewTCB = ( TCB_t * ) pvPortMalloc( sizeof( TCB_t ) ); /*lint !e9087 !e9079 All values returned by pvPortMalloc() have at least the alignment required by the MCU's stack, and the first member of TCB_t is always a pointer to the task's stack. */
     4cc:	58800513          	li	a0,1416
     4d0:	549070ef          	jal	ra,8218 <pvPortMalloc>
     4d4:	fea42223          	sw	a0,-28(s0)

                if( pxNewTCB != NULL )
     4d8:	fe442783          	lw	a5,-28(s0)
     4dc:	02078263          	beqz	a5,500 <xTaskCreate+0x7c>
                {
                    memset( ( void * ) pxNewTCB, 0x00, sizeof( TCB_t ) );
     4e0:	58800613          	li	a2,1416
     4e4:	00000593          	li	a1,0
     4e8:	fe442503          	lw	a0,-28(s0)
     4ec:	3540d0ef          	jal	ra,d840 <memset>

                    /* Store the stack location in the TCB. */
                    pxNewTCB->pxStack = pxStack;
     4f0:	fe442783          	lw	a5,-28(s0)
     4f4:	fec42703          	lw	a4,-20(s0)
     4f8:	02e7a823          	sw	a4,48(a5)
     4fc:	0140006f          	j	510 <xTaskCreate+0x8c>
                }
                else
                {
                    /* The stack cannot be used as the TCB was not created.  Free
                     * it again. */
                    vPortFreeStack( pxStack );
     500:	fec42503          	lw	a0,-20(s0)
     504:	74d070ef          	jal	ra,8450 <vPortFree>
     508:	0080006f          	j	510 <xTaskCreate+0x8c>
                }
            }
            else
            {
                pxNewTCB = NULL;
     50c:	fe042223          	sw	zero,-28(s0)
            }
        }
        #endif /* portSTACK_GROWTH */

        if( pxNewTCB != NULL )
     510:	fe442783          	lw	a5,-28(s0)
     514:	02078e63          	beqz	a5,550 <xTaskCreate+0xcc>
                 * task was created dynamically in case it is later deleted. */
                pxNewTCB->ucStaticallyAllocated = tskDYNAMICALLY_ALLOCATED_STACK_AND_TCB;
            }
            #endif /* tskSTATIC_AND_DYNAMIC_ALLOCATION_POSSIBLE */

            prvInitialiseNewTask( pxTaskCode, pcName, ( uint32_t ) usStackDepth, pvParameters, uxPriority, pxCreatedTask, pxNewTCB, NULL );
     518:	fd645603          	lhu	a2,-42(s0)
     51c:	00000893          	li	a7,0
     520:	fe442803          	lw	a6,-28(s0)
     524:	fc842783          	lw	a5,-56(s0)
     528:	fcc42703          	lw	a4,-52(s0)
     52c:	fd042683          	lw	a3,-48(s0)
     530:	fd842583          	lw	a1,-40(s0)
     534:	fdc42503          	lw	a0,-36(s0)
     538:	038000ef          	jal	ra,570 <prvInitialiseNewTask>
            prvAddNewTaskToReadyList( pxNewTCB );
     53c:	fe442503          	lw	a0,-28(s0)
     540:	2e4000ef          	jal	ra,824 <prvAddNewTaskToReadyList>
            xReturn = pdPASS;
     544:	00100793          	li	a5,1
     548:	fef42423          	sw	a5,-24(s0)
     54c:	00c0006f          	j	558 <xTaskCreate+0xd4>
        }
        else
        {
            xReturn = errCOULD_NOT_ALLOCATE_REQUIRED_MEMORY;
     550:	fff00793          	li	a5,-1
     554:	fef42423          	sw	a5,-24(s0)
        }

        return xReturn;
     558:	fe842783          	lw	a5,-24(s0)
    }
     55c:	00078513          	mv	a0,a5
     560:	03c12083          	lw	ra,60(sp)
     564:	03812403          	lw	s0,56(sp)
     568:	04010113          	addi	sp,sp,64
     56c:	00008067          	ret

00000570 <prvInitialiseNewTask>:
                                  void * const pvParameters,
                                  UBaseType_t uxPriority,
                                  TaskHandle_t * const pxCreatedTask,
                                  TCB_t * pxNewTCB,
                                  const MemoryRegion_t * const xRegions )
{
     570:	fc010113          	addi	sp,sp,-64
     574:	02112e23          	sw	ra,60(sp)
     578:	02812c23          	sw	s0,56(sp)
     57c:	04010413          	addi	s0,sp,64
     580:	fca42e23          	sw	a0,-36(s0)
     584:	fcb42c23          	sw	a1,-40(s0)
     588:	fcc42a23          	sw	a2,-44(s0)
     58c:	fcd42823          	sw	a3,-48(s0)
     590:	fce42623          	sw	a4,-52(s0)
     594:	fcf42423          	sw	a5,-56(s0)
     598:	fd042223          	sw	a6,-60(s0)
     59c:	fd142023          	sw	a7,-64(s0)

    /* Avoid dependency on memset() if it is not required. */
    #if ( tskSET_NEW_STACKS_TO_KNOWN_VALUE == 1 )
    {
        /* Fill the stack with a known value to assist debugging. */
        ( void ) memset( pxNewTCB->pxStack, ( int ) tskSTACK_FILL_BYTE, ( size_t ) ulStackDepth * sizeof( StackType_t ) );
     5a0:	fc442783          	lw	a5,-60(s0)
     5a4:	0307a703          	lw	a4,48(a5)
     5a8:	fd442783          	lw	a5,-44(s0)
     5ac:	00279793          	slli	a5,a5,0x2
     5b0:	00078613          	mv	a2,a5
     5b4:	0a500593          	li	a1,165
     5b8:	00070513          	mv	a0,a4
     5bc:	2840d0ef          	jal	ra,d840 <memset>
     * grows from high memory to low (as per the 80x86) or vice versa.
     * portSTACK_GROWTH is used to make the result positive or negative as required
     * by the port. */
    #if ( portSTACK_GROWTH < 0 )
    {
        pxTopOfStack = &( pxNewTCB->pxStack[ ulStackDepth - ( uint32_t ) 1 ] );
     5c0:	fc442783          	lw	a5,-60(s0)
     5c4:	0307a703          	lw	a4,48(a5)
     5c8:	fd442683          	lw	a3,-44(s0)
     5cc:	400007b7          	lui	a5,0x40000
     5d0:	fff78793          	addi	a5,a5,-1 # 3fffffff <__alt_data_end+0x3ffbffff>
     5d4:	00f687b3          	add	a5,a3,a5
     5d8:	00279793          	slli	a5,a5,0x2
     5dc:	00f707b3          	add	a5,a4,a5
     5e0:	fef42623          	sw	a5,-20(s0)
        pxTopOfStack = ( StackType_t * ) ( ( ( portPOINTER_SIZE_TYPE ) pxTopOfStack ) & ( ~( ( portPOINTER_SIZE_TYPE ) portBYTE_ALIGNMENT_MASK ) ) ); /*lint !e923 !e9033 !e9078 MISRA exception.  Avoiding casts between pointers and integers is not practical.  Size differences accounted for using portPOINTER_SIZE_TYPE type.  Checked by assert(). */
     5e4:	fec42783          	lw	a5,-20(s0)
     5e8:	ff07f793          	andi	a5,a5,-16
     5ec:	fef42623          	sw	a5,-20(s0)

        /* Check the alignment of the calculated top of stack is correct. */
        configASSERT( ( ( ( portPOINTER_SIZE_TYPE ) pxTopOfStack & ( portPOINTER_SIZE_TYPE ) portBYTE_ALIGNMENT_MASK ) == 0UL ) );
     5f0:	fec42783          	lw	a5,-20(s0)
     5f4:	00f7f793          	andi	a5,a5,15
     5f8:	00078a63          	beqz	a5,60c <prvInitialiseNewTask+0x9c>
     5fc:	30047073          	csrci	mstatus,8
     600:	00100073          	ebreak
     604:	00000013          	nop
     608:	ffdff06f          	j	604 <prvInitialiseNewTask+0x94>
        pxNewTCB->pxEndOfStack = pxNewTCB->pxStack + ( ulStackDepth - ( uint32_t ) 1 );
    }
    #endif /* portSTACK_GROWTH */

    /* Store the task name in the TCB. */
    if( pcName != NULL )
     60c:	fd842783          	lw	a5,-40(s0)
     610:	06078463          	beqz	a5,678 <prvInitialiseNewTask+0x108>
    {
        for( x = ( UBaseType_t ) 0; x < ( UBaseType_t ) configMAX_TASK_NAME_LEN; x++ )
     614:	fe042423          	sw	zero,-24(s0)
     618:	0440006f          	j	65c <prvInitialiseNewTask+0xec>
        {
            pxNewTCB->pcTaskName[ x ] = pcName[ x ];
     61c:	fd842703          	lw	a4,-40(s0)
     620:	fe842783          	lw	a5,-24(s0)
     624:	00f707b3          	add	a5,a4,a5
     628:	0007c703          	lbu	a4,0(a5)
     62c:	fc442683          	lw	a3,-60(s0)
     630:	fe842783          	lw	a5,-24(s0)
     634:	00f687b3          	add	a5,a3,a5
     638:	02e78a23          	sb	a4,52(a5)

            /* Don't copy all configMAX_TASK_NAME_LEN if the string is shorter than
             * configMAX_TASK_NAME_LEN characters just in case the memory after the
             * string is not accessible (extremely unlikely). */
            if( pcName[ x ] == ( char ) 0x00 )
     63c:	fd842703          	lw	a4,-40(s0)
     640:	fe842783          	lw	a5,-24(s0)
     644:	00f707b3          	add	a5,a4,a5
     648:	0007c783          	lbu	a5,0(a5)
     64c:	02078063          	beqz	a5,66c <prvInitialiseNewTask+0xfc>
        for( x = ( UBaseType_t ) 0; x < ( UBaseType_t ) configMAX_TASK_NAME_LEN; x++ )
     650:	fe842783          	lw	a5,-24(s0)
     654:	00178793          	addi	a5,a5,1
     658:	fef42423          	sw	a5,-24(s0)
     65c:	fe842703          	lw	a4,-24(s0)
     660:	00f00793          	li	a5,15
     664:	fae7fce3          	bgeu	a5,a4,61c <prvInitialiseNewTask+0xac>
     668:	0080006f          	j	670 <prvInitialiseNewTask+0x100>
            {
                break;
     66c:	00000013          	nop
            }
        }

        /* Ensure the name string is terminated in the case that the string length
         * was greater or equal to configMAX_TASK_NAME_LEN. */
        pxNewTCB->pcTaskName[ configMAX_TASK_NAME_LEN - 1 ] = '\0';
     670:	fc442783          	lw	a5,-60(s0)
     674:	040781a3          	sb	zero,67(a5)
    {
        mtCOVERAGE_TEST_MARKER();
    }

    /* This is used as an array index so must ensure it's not too large. */
    configASSERT( uxPriority < configMAX_PRIORITIES );
     678:	fcc42703          	lw	a4,-52(s0)
     67c:	00600793          	li	a5,6
     680:	00e7fa63          	bgeu	a5,a4,694 <prvInitialiseNewTask+0x124>
     684:	30047073          	csrci	mstatus,8
     688:	00100073          	ebreak
     68c:	00000013          	nop
     690:	ffdff06f          	j	68c <prvInitialiseNewTask+0x11c>

    if( uxPriority >= ( UBaseType_t ) configMAX_PRIORITIES )
     694:	fcc42703          	lw	a4,-52(s0)
     698:	00600793          	li	a5,6
     69c:	00e7f663          	bgeu	a5,a4,6a8 <prvInitialiseNewTask+0x138>
    {
        uxPriority = ( UBaseType_t ) configMAX_PRIORITIES - ( UBaseType_t ) 1U;
     6a0:	00600793          	li	a5,6
     6a4:	fcf42623          	sw	a5,-52(s0)
    else
    {
        mtCOVERAGE_TEST_MARKER();
    }

    pxNewTCB->uxPriority = uxPriority;
     6a8:	fc442783          	lw	a5,-60(s0)
     6ac:	fcc42703          	lw	a4,-52(s0)
     6b0:	02e7a623          	sw	a4,44(a5)
    #if ( configUSE_MUTEXES == 1 )
    {
        pxNewTCB->uxBasePriority = uxPriority;
     6b4:	fc442783          	lw	a5,-60(s0)
     6b8:	fcc42703          	lw	a4,-52(s0)
     6bc:	04e7a623          	sw	a4,76(a5)
    }
    #endif /* configUSE_MUTEXES */

    vListInitialiseItem( &( pxNewTCB->xStateListItem ) );
     6c0:	fc442783          	lw	a5,-60(s0)
     6c4:	00478793          	addi	a5,a5,4
     6c8:	00078513          	mv	a0,a5
     6cc:	619080ef          	jal	ra,94e4 <vListInitialiseItem>
    vListInitialiseItem( &( pxNewTCB->xEventListItem ) );
     6d0:	fc442783          	lw	a5,-60(s0)
     6d4:	01878793          	addi	a5,a5,24
     6d8:	00078513          	mv	a0,a5
     6dc:	609080ef          	jal	ra,94e4 <vListInitialiseItem>

    /* Set the pxNewTCB as a link back from the ListItem_t.  This is so we can get
     * back to  the containing TCB from a generic item in a list. */
    listSET_LIST_ITEM_OWNER( &( pxNewTCB->xStateListItem ), pxNewTCB );
     6e0:	fc442783          	lw	a5,-60(s0)
     6e4:	fc442703          	lw	a4,-60(s0)
     6e8:	00e7a823          	sw	a4,16(a5)

    /* Event lists are always in priority order. */
    listSET_LIST_ITEM_VALUE( &( pxNewTCB->xEventListItem ), ( TickType_t ) configMAX_PRIORITIES - ( TickType_t ) uxPriority ); /*lint !e961 MISRA exception as the casts are only redundant for some ports. */
     6ec:	00700713          	li	a4,7
     6f0:	fcc42783          	lw	a5,-52(s0)
     6f4:	40f70733          	sub	a4,a4,a5
     6f8:	fc442783          	lw	a5,-60(s0)
     6fc:	00e7ac23          	sw	a4,24(a5)
    listSET_LIST_ITEM_OWNER( &( pxNewTCB->xEventListItem ), pxNewTCB );
     700:	fc442783          	lw	a5,-60(s0)
     704:	fc442703          	lw	a4,-60(s0)
     708:	02e7a223          	sw	a4,36(a5)
    #endif

    #if ( ( configUSE_NEWLIB_REENTRANT == 1 ) || ( configUSE_C_RUNTIME_TLS_SUPPORT == 1 ) )
    {
        /* Allocate and initialize memory for the task's TLS Block. */
        configINIT_TLS_BLOCK( pxNewTCB->xTLSBlock );
     70c:	fc442783          	lw	a5,-60(s0)
     710:	05878793          	addi	a5,a5,88
     714:	00078513          	mv	a0,a5
     718:	21c060ef          	jal	ra,6934 <alt_init_tls_block>
     71c:	fc442783          	lw	a5,-60(s0)
     720:	15878793          	addi	a5,a5,344
     724:	42800613          	li	a2,1064
     728:	00000593          	li	a1,0
     72c:	00078513          	mv	a0,a5
     730:	1100d0ef          	jal	ra,d840 <memset>
     734:	fc442783          	lw	a5,-60(s0)
     738:	44478713          	addi	a4,a5,1092
     73c:	fc442783          	lw	a5,-60(s0)
     740:	14e7ae23          	sw	a4,348(a5)
     744:	fc442783          	lw	a5,-60(s0)
     748:	4ac78713          	addi	a4,a5,1196
     74c:	fc442783          	lw	a5,-60(s0)
     750:	16e7a023          	sw	a4,352(a5)
     754:	fc442783          	lw	a5,-60(s0)
     758:	51478713          	addi	a4,a5,1300
     75c:	fc442783          	lw	a5,-60(s0)
     760:	16e7a223          	sw	a4,356(a5)
     764:	fc442683          	lw	a3,-60(s0)
     768:	00100713          	li	a4,1
     76c:	00000793          	li	a5,0
     770:	20e6a023          	sw	a4,512(a3)
     774:	20f6a223          	sw	a5,516(a3)
     778:	fc442783          	lw	a5,-60(s0)
     77c:	00003737          	lui	a4,0x3
     780:	30e70713          	addi	a4,a4,782 # 330e <vTaskRemoveFromUnorderedEventList+0x22a>
     784:	20e79423          	sh	a4,520(a5)
     788:	fc442783          	lw	a5,-60(s0)
     78c:	ffffb737          	lui	a4,0xffffb
     790:	bcd70713          	addi	a4,a4,-1075 # ffffabcd <__alt_data_end+0xfffbabcd>
     794:	20e79523          	sh	a4,522(a5)
     798:	fc442783          	lw	a5,-60(s0)
     79c:	00001737          	lui	a4,0x1
     7a0:	23470713          	addi	a4,a4,564 # 1234 <vTaskPrioritySet+0x20c>
     7a4:	20e79623          	sh	a4,524(a5)
     7a8:	fc442783          	lw	a5,-60(s0)
     7ac:	ffffe737          	lui	a4,0xffffe
     7b0:	66d70713          	addi	a4,a4,1645 # ffffe66d <__alt_data_end+0xfffbe66d>
     7b4:	20e79723          	sh	a4,526(a5)
     7b8:	fc442783          	lw	a5,-60(s0)
     7bc:	ffffe737          	lui	a4,0xffffe
     7c0:	eec70713          	addi	a4,a4,-276 # ffffdeec <__alt_data_end+0xfffbdeec>
     7c4:	20e79823          	sh	a4,528(a5)
     7c8:	fc442783          	lw	a5,-60(s0)
     7cc:	00500713          	li	a4,5
     7d0:	20e79923          	sh	a4,530(a5)
     7d4:	fc442783          	lw	a5,-60(s0)
     7d8:	00b00713          	li	a4,11
     7dc:	20e79a23          	sh	a4,532(a5)
            }
            #endif /* portSTACK_GROWTH */
        }
        #else /* portHAS_STACK_OVERFLOW_CHECKING */
        {
            pxNewTCB->pxTopOfStack = pxPortInitialiseStack( pxTopOfStack, pxTaskCode, pvParameters );
     7e0:	fd042603          	lw	a2,-48(s0)
     7e4:	fdc42583          	lw	a1,-36(s0)
     7e8:	fec42503          	lw	a0,-20(s0)
     7ec:	104090ef          	jal	ra,98f0 <pxPortInitialiseStack>
     7f0:	00050713          	mv	a4,a0
     7f4:	fc442783          	lw	a5,-60(s0)
     7f8:	00e7a023          	sw	a4,0(a5)
        }
        #endif /* portHAS_STACK_OVERFLOW_CHECKING */
    }
    #endif /* portUSING_MPU_WRAPPERS */

    if( pxCreatedTask != NULL )
     7fc:	fc842783          	lw	a5,-56(s0)
     800:	00078863          	beqz	a5,810 <prvInitialiseNewTask+0x2a0>
    {
        /* Pass the handle out in an anonymous way.  The handle can be used to
         * change the created task's priority, delete the created task, etc.*/
        *pxCreatedTask = ( TaskHandle_t ) pxNewTCB;
     804:	fc842783          	lw	a5,-56(s0)
     808:	fc442703          	lw	a4,-60(s0)
     80c:	00e7a023          	sw	a4,0(a5)
    }
    else
    {
        mtCOVERAGE_TEST_MARKER();
    }
}
     810:	00000013          	nop
     814:	03c12083          	lw	ra,60(sp)
     818:	03812403          	lw	s0,56(sp)
     81c:	04010113          	addi	sp,sp,64
     820:	00008067          	ret

00000824 <prvAddNewTaskToReadyList>:
/*-----------------------------------------------------------*/

static void prvAddNewTaskToReadyList( TCB_t * pxNewTCB )
{
     824:	fd010113          	addi	sp,sp,-48
     828:	02112623          	sw	ra,44(sp)
     82c:	02812423          	sw	s0,40(sp)
     830:	03010413          	addi	s0,sp,48
     834:	fca42e23          	sw	a0,-36(s0)
    /* Ensure interrupts don't access the task lists while the lists are being
     * updated. */
    taskENTER_CRITICAL();
     838:	30047073          	csrci	mstatus,8
     83c:	000267b7          	lui	a5,0x26
     840:	0147a783          	lw	a5,20(a5) # 26014 <xCriticalNesting>
     844:	00178713          	addi	a4,a5,1
     848:	000267b7          	lui	a5,0x26
     84c:	00e7aa23          	sw	a4,20(a5) # 26014 <xCriticalNesting>
    {
        uxCurrentNumberOfTasks++;
     850:	000287b7          	lui	a5,0x28
     854:	de07a783          	lw	a5,-544(a5) # 27de0 <uxCurrentNumberOfTasks>
     858:	00178713          	addi	a4,a5,1
     85c:	000287b7          	lui	a5,0x28
     860:	dee7a023          	sw	a4,-544(a5) # 27de0 <uxCurrentNumberOfTasks>

        if( pxCurrentTCB == NULL )
     864:	000287b7          	lui	a5,0x28
     868:	c507a783          	lw	a5,-944(a5) # 27c50 <pxCurrentTCB>
     86c:	02079463          	bnez	a5,894 <prvAddNewTaskToReadyList+0x70>
        {
            /* There are no other tasks, or all the other tasks are in
             * the suspended state - make this the current task. */
            pxCurrentTCB = pxNewTCB;
     870:	000287b7          	lui	a5,0x28
     874:	fdc42703          	lw	a4,-36(s0)
     878:	c4e7a823          	sw	a4,-944(a5) # 27c50 <pxCurrentTCB>

            if( uxCurrentNumberOfTasks == ( UBaseType_t ) 1 )
     87c:	000287b7          	lui	a5,0x28
     880:	de07a703          	lw	a4,-544(a5) # 27de0 <uxCurrentNumberOfTasks>
     884:	00100793          	li	a5,1
     888:	02f71e63          	bne	a4,a5,8c4 <prvAddNewTaskToReadyList+0xa0>
            {
                /* This is the first task to be created so do the preliminary
                 * initialisation required.  We will not recover if this call
                 * fails, but we will report the failure. */
                prvInitialiseTaskLists();
     88c:	5fd020ef          	jal	ra,3688 <prvInitialiseTaskLists>
     890:	0340006f          	j	8c4 <prvAddNewTaskToReadyList+0xa0>
        else
        {
            /* If the scheduler is not already running, make this task the
             * current task if it is the highest priority task to be created
             * so far. */
            if( xSchedulerRunning == pdFALSE )
     894:	000287b7          	lui	a5,0x28
     898:	dec7a783          	lw	a5,-532(a5) # 27dec <xSchedulerRunning>
     89c:	02079463          	bnez	a5,8c4 <prvAddNewTaskToReadyList+0xa0>
            {
                if( pxCurrentTCB->uxPriority <= pxNewTCB->uxPriority )
     8a0:	000287b7          	lui	a5,0x28
     8a4:	c507a783          	lw	a5,-944(a5) # 27c50 <pxCurrentTCB>
     8a8:	02c7a703          	lw	a4,44(a5)
     8ac:	fdc42783          	lw	a5,-36(s0)
     8b0:	02c7a783          	lw	a5,44(a5)
     8b4:	00e7e863          	bltu	a5,a4,8c4 <prvAddNewTaskToReadyList+0xa0>
                {
                    pxCurrentTCB = pxNewTCB;
     8b8:	000287b7          	lui	a5,0x28
     8bc:	fdc42703          	lw	a4,-36(s0)
     8c0:	c4e7a823          	sw	a4,-944(a5) # 27c50 <pxCurrentTCB>
            {
                mtCOVERAGE_TEST_MARKER();
            }
        }

        uxTaskNumber++;
     8c4:	000287b7          	lui	a5,0x28
     8c8:	dfc7a783          	lw	a5,-516(a5) # 27dfc <uxTaskNumber>
     8cc:	00178713          	addi	a4,a5,1
     8d0:	000287b7          	lui	a5,0x28
     8d4:	dee7ae23          	sw	a4,-516(a5) # 27dfc <uxTaskNumber>

        #if ( configUSE_TRACE_FACILITY == 1 )
        {
            /* Add a counter into the TCB for tracing only. */
            pxNewTCB->uxTCBNumber = uxTaskNumber;
     8d8:	000287b7          	lui	a5,0x28
     8dc:	dfc7a703          	lw	a4,-516(a5) # 27dfc <uxTaskNumber>
     8e0:	fdc42783          	lw	a5,-36(s0)
     8e4:	04e7a223          	sw	a4,68(a5)
        }
        #endif /* configUSE_TRACE_FACILITY */
        traceTASK_CREATE( pxNewTCB );

        prvAddTaskToReadyList( pxNewTCB );
     8e8:	fdc42783          	lw	a5,-36(s0)
     8ec:	02c7a783          	lw	a5,44(a5)
     8f0:	00100713          	li	a4,1
     8f4:	00f71733          	sll	a4,a4,a5
     8f8:	000287b7          	lui	a5,0x28
     8fc:	de87a783          	lw	a5,-536(a5) # 27de8 <uxTopReadyPriority>
     900:	00f76733          	or	a4,a4,a5
     904:	000287b7          	lui	a5,0x28
     908:	dee7a423          	sw	a4,-536(a5) # 27de8 <uxTopReadyPriority>
     90c:	fdc42783          	lw	a5,-36(s0)
     910:	02c7a703          	lw	a4,44(a5)
     914:	000287b7          	lui	a5,0x28
     918:	ce478693          	addi	a3,a5,-796 # 27ce4 <pxReadyTasksLists>
     91c:	00070793          	mv	a5,a4
     920:	00279793          	slli	a5,a5,0x2
     924:	00e787b3          	add	a5,a5,a4
     928:	00279793          	slli	a5,a5,0x2
     92c:	00f687b3          	add	a5,a3,a5
     930:	0047a783          	lw	a5,4(a5)
     934:	fef42623          	sw	a5,-20(s0)
     938:	fdc42783          	lw	a5,-36(s0)
     93c:	fec42703          	lw	a4,-20(s0)
     940:	00e7a423          	sw	a4,8(a5)
     944:	fec42783          	lw	a5,-20(s0)
     948:	0087a703          	lw	a4,8(a5)
     94c:	fdc42783          	lw	a5,-36(s0)
     950:	00e7a623          	sw	a4,12(a5)
     954:	fec42783          	lw	a5,-20(s0)
     958:	0087a783          	lw	a5,8(a5)
     95c:	fdc42703          	lw	a4,-36(s0)
     960:	00470713          	addi	a4,a4,4
     964:	00e7a223          	sw	a4,4(a5)
     968:	fdc42783          	lw	a5,-36(s0)
     96c:	00478713          	addi	a4,a5,4
     970:	fec42783          	lw	a5,-20(s0)
     974:	00e7a423          	sw	a4,8(a5)
     978:	fdc42783          	lw	a5,-36(s0)
     97c:	02c7a703          	lw	a4,44(a5)
     980:	00070793          	mv	a5,a4
     984:	00279793          	slli	a5,a5,0x2
     988:	00e787b3          	add	a5,a5,a4
     98c:	00279793          	slli	a5,a5,0x2
     990:	00028737          	lui	a4,0x28
     994:	ce470713          	addi	a4,a4,-796 # 27ce4 <pxReadyTasksLists>
     998:	00e78733          	add	a4,a5,a4
     99c:	fdc42783          	lw	a5,-36(s0)
     9a0:	00e7aa23          	sw	a4,20(a5)
     9a4:	fdc42783          	lw	a5,-36(s0)
     9a8:	02c7a703          	lw	a4,44(a5)
     9ac:	000287b7          	lui	a5,0x28
     9b0:	ce478693          	addi	a3,a5,-796 # 27ce4 <pxReadyTasksLists>
     9b4:	00070793          	mv	a5,a4
     9b8:	00279793          	slli	a5,a5,0x2
     9bc:	00e787b3          	add	a5,a5,a4
     9c0:	00279793          	slli	a5,a5,0x2
     9c4:	00f687b3          	add	a5,a3,a5
     9c8:	0007a783          	lw	a5,0(a5)
     9cc:	00178693          	addi	a3,a5,1
     9d0:	000287b7          	lui	a5,0x28
     9d4:	ce478613          	addi	a2,a5,-796 # 27ce4 <pxReadyTasksLists>
     9d8:	00070793          	mv	a5,a4
     9dc:	00279793          	slli	a5,a5,0x2
     9e0:	00e787b3          	add	a5,a5,a4
     9e4:	00279793          	slli	a5,a5,0x2
     9e8:	00f607b3          	add	a5,a2,a5
     9ec:	00d7a023          	sw	a3,0(a5)

        portSETUP_TCB( pxNewTCB );
    }
    taskEXIT_CRITICAL();
     9f0:	000267b7          	lui	a5,0x26
     9f4:	0147a783          	lw	a5,20(a5) # 26014 <xCriticalNesting>
     9f8:	fff78713          	addi	a4,a5,-1
     9fc:	000267b7          	lui	a5,0x26
     a00:	00e7aa23          	sw	a4,20(a5) # 26014 <xCriticalNesting>
     a04:	000267b7          	lui	a5,0x26
     a08:	0147a783          	lw	a5,20(a5) # 26014 <xCriticalNesting>
     a0c:	00079463          	bnez	a5,a14 <prvAddNewTaskToReadyList+0x1f0>
     a10:	30046073          	csrsi	mstatus,8

    if( xSchedulerRunning != pdFALSE )
     a14:	000287b7          	lui	a5,0x28
     a18:	dec7a783          	lw	a5,-532(a5) # 27dec <xSchedulerRunning>
     a1c:	02078063          	beqz	a5,a3c <prvAddNewTaskToReadyList+0x218>
    {
        /* If the created task is of a higher priority than the current task
         * then it should run now. */
        if( pxCurrentTCB->uxPriority < pxNewTCB->uxPriority )
     a20:	000287b7          	lui	a5,0x28
     a24:	c507a783          	lw	a5,-944(a5) # 27c50 <pxCurrentTCB>
     a28:	02c7a703          	lw	a4,44(a5)
     a2c:	fdc42783          	lw	a5,-36(s0)
     a30:	02c7a783          	lw	a5,44(a5)
     a34:	00f77463          	bgeu	a4,a5,a3c <prvAddNewTaskToReadyList+0x218>
        {
            taskYIELD_IF_USING_PREEMPTION();
     a38:	00000073          	ecall
    }
    else
    {
        mtCOVERAGE_TEST_MARKER();
    }
}
     a3c:	00000013          	nop
     a40:	02c12083          	lw	ra,44(sp)
     a44:	02812403          	lw	s0,40(sp)
     a48:	03010113          	addi	sp,sp,48
     a4c:	00008067          	ret

00000a50 <vTaskDelete>:
/*-----------------------------------------------------------*/

#if ( INCLUDE_vTaskDelete == 1 )

    void vTaskDelete( TaskHandle_t xTaskToDelete )
    {
     a50:	fd010113          	addi	sp,sp,-48
     a54:	02112623          	sw	ra,44(sp)
     a58:	02812423          	sw	s0,40(sp)
     a5c:	03010413          	addi	s0,sp,48
     a60:	fca42e23          	sw	a0,-36(s0)
        TCB_t * pxTCB;

        taskENTER_CRITICAL();
     a64:	30047073          	csrci	mstatus,8
     a68:	000267b7          	lui	a5,0x26
     a6c:	0147a783          	lw	a5,20(a5) # 26014 <xCriticalNesting>
     a70:	00178713          	addi	a4,a5,1
     a74:	000267b7          	lui	a5,0x26
     a78:	00e7aa23          	sw	a4,20(a5) # 26014 <xCriticalNesting>
        {
            /* If null is passed in here then it is the calling task that is
             * being deleted. */
            pxTCB = prvGetTCBFromHandle( xTaskToDelete );
     a7c:	fdc42783          	lw	a5,-36(s0)
     a80:	00079863          	bnez	a5,a90 <vTaskDelete+0x40>
     a84:	000287b7          	lui	a5,0x28
     a88:	c507a783          	lw	a5,-944(a5) # 27c50 <pxCurrentTCB>
     a8c:	0080006f          	j	a94 <vTaskDelete+0x44>
     a90:	fdc42783          	lw	a5,-36(s0)
     a94:	fef42623          	sw	a5,-20(s0)

            /* Remove task from the ready/delayed list. */
            if( uxListRemove( &( pxTCB->xStateListItem ) ) == ( UBaseType_t ) 0 )
     a98:	fec42783          	lw	a5,-20(s0)
     a9c:	00478793          	addi	a5,a5,4
     aa0:	00078513          	mv	a0,a5
     aa4:	3c5080ef          	jal	ra,9668 <uxListRemove>
     aa8:	00050793          	mv	a5,a0
     aac:	04079c63          	bnez	a5,b04 <vTaskDelete+0xb4>
            {
                taskRESET_READY_PRIORITY( pxTCB->uxPriority );
     ab0:	fec42783          	lw	a5,-20(s0)
     ab4:	02c7a703          	lw	a4,44(a5)
     ab8:	000287b7          	lui	a5,0x28
     abc:	ce478693          	addi	a3,a5,-796 # 27ce4 <pxReadyTasksLists>
     ac0:	00070793          	mv	a5,a4
     ac4:	00279793          	slli	a5,a5,0x2
     ac8:	00e787b3          	add	a5,a5,a4
     acc:	00279793          	slli	a5,a5,0x2
     ad0:	00f687b3          	add	a5,a3,a5
     ad4:	0007a783          	lw	a5,0(a5)
     ad8:	02079663          	bnez	a5,b04 <vTaskDelete+0xb4>
     adc:	fec42783          	lw	a5,-20(s0)
     ae0:	02c7a783          	lw	a5,44(a5)
     ae4:	00100713          	li	a4,1
     ae8:	00f717b3          	sll	a5,a4,a5
     aec:	fff7c713          	not	a4,a5
     af0:	000287b7          	lui	a5,0x28
     af4:	de87a783          	lw	a5,-536(a5) # 27de8 <uxTopReadyPriority>
     af8:	00f77733          	and	a4,a4,a5
     afc:	000287b7          	lui	a5,0x28
     b00:	dee7a423          	sw	a4,-536(a5) # 27de8 <uxTopReadyPriority>
            {
                mtCOVERAGE_TEST_MARKER();
            }

            /* Is the task waiting on an event also? */
            if( listLIST_ITEM_CONTAINER( &( pxTCB->xEventListItem ) ) != NULL )
     b04:	fec42783          	lw	a5,-20(s0)
     b08:	0287a783          	lw	a5,40(a5)
     b0c:	00078a63          	beqz	a5,b20 <vTaskDelete+0xd0>
            {
                ( void ) uxListRemove( &( pxTCB->xEventListItem ) );
     b10:	fec42783          	lw	a5,-20(s0)
     b14:	01878793          	addi	a5,a5,24
     b18:	00078513          	mv	a0,a5
     b1c:	34d080ef          	jal	ra,9668 <uxListRemove>

            /* Increment the uxTaskNumber also so kernel aware debuggers can
             * detect that the task lists need re-generating.  This is done before
             * portPRE_TASK_DELETE_HOOK() as in the Windows port that macro will
             * not return. */
            uxTaskNumber++;
     b20:	000287b7          	lui	a5,0x28
     b24:	dfc7a783          	lw	a5,-516(a5) # 27dfc <uxTaskNumber>
     b28:	00178713          	addi	a4,a5,1
     b2c:	000287b7          	lui	a5,0x28
     b30:	dee7ae23          	sw	a4,-516(a5) # 27dfc <uxTaskNumber>

            if( pxTCB == pxCurrentTCB )
     b34:	000287b7          	lui	a5,0x28
     b38:	c507a783          	lw	a5,-944(a5) # 27c50 <pxCurrentTCB>
     b3c:	fec42703          	lw	a4,-20(s0)
     b40:	02f71a63          	bne	a4,a5,b74 <vTaskDelete+0x124>
                /* A task is deleting itself.  This cannot complete within the
                 * task itself, as a context switch to another task is required.
                 * Place the task in the termination list.  The idle task will
                 * check the termination list and free up any memory allocated by
                 * the scheduler for the TCB and stack of the deleted task. */
                vListInsertEnd( &xTasksWaitingTermination, &( pxTCB->xStateListItem ) );
     b44:	fec42783          	lw	a5,-20(s0)
     b48:	00478793          	addi	a5,a5,4
     b4c:	00078593          	mv	a1,a5
     b50:	000287b7          	lui	a5,0x28
     b54:	db478513          	addi	a0,a5,-588 # 27db4 <xTasksWaitingTermination>
     b58:	1b5080ef          	jal	ra,950c <vListInsertEnd>

                /* Increment the ucTasksDeleted variable so the idle task knows
                 * there is a task that has been deleted and that it should therefore
                 * check the xTasksWaitingTermination list. */
                ++uxDeletedTasksWaitingCleanUp;
     b5c:	000287b7          	lui	a5,0x28
     b60:	dc87a783          	lw	a5,-568(a5) # 27dc8 <uxDeletedTasksWaitingCleanUp>
     b64:	00178713          	addi	a4,a5,1
     b68:	000287b7          	lui	a5,0x28
     b6c:	dce7a423          	sw	a4,-568(a5) # 27dc8 <uxDeletedTasksWaitingCleanUp>
     b70:	01c0006f          	j	b8c <vTaskDelete+0x13c>
                 * required. */
                portPRE_TASK_DELETE_HOOK( pxTCB, &xYieldPending );
            }
            else
            {
                --uxCurrentNumberOfTasks;
     b74:	000287b7          	lui	a5,0x28
     b78:	de07a783          	lw	a5,-544(a5) # 27de0 <uxCurrentNumberOfTasks>
     b7c:	fff78713          	addi	a4,a5,-1
     b80:	000287b7          	lui	a5,0x28
     b84:	dee7a023          	sw	a4,-544(a5) # 27de0 <uxCurrentNumberOfTasks>
                traceTASK_DELETE( pxTCB );

                /* Reset the next expected unblock time in case it referred to
                 * the task that has just been deleted. */
                prvResetNextTaskUnblockTime();
     b88:	7e5020ef          	jal	ra,3b6c <prvResetNextTaskUnblockTime>
            }
        }
        taskEXIT_CRITICAL();
     b8c:	000267b7          	lui	a5,0x26
     b90:	0147a783          	lw	a5,20(a5) # 26014 <xCriticalNesting>
     b94:	fff78713          	addi	a4,a5,-1
     b98:	000267b7          	lui	a5,0x26
     b9c:	00e7aa23          	sw	a4,20(a5) # 26014 <xCriticalNesting>
     ba0:	000267b7          	lui	a5,0x26
     ba4:	0147a783          	lw	a5,20(a5) # 26014 <xCriticalNesting>
     ba8:	00079463          	bnez	a5,bb0 <vTaskDelete+0x160>
     bac:	30046073          	csrsi	mstatus,8

        /* If the task is not deleting itself, call prvDeleteTCB from outside of
         * critical section. If a task deletes itself, prvDeleteTCB is called
         * from prvCheckTasksWaitingTermination which is called from Idle task. */
        if( pxTCB != pxCurrentTCB )
     bb0:	000287b7          	lui	a5,0x28
     bb4:	c507a783          	lw	a5,-944(a5) # 27c50 <pxCurrentTCB>
     bb8:	fec42703          	lw	a4,-20(s0)
     bbc:	00f70663          	beq	a4,a5,bc8 <vTaskDelete+0x178>
        {
            prvDeleteTCB( pxTCB );
     bc0:	fec42503          	lw	a0,-20(s0)
     bc4:	755020ef          	jal	ra,3b18 <prvDeleteTCB>
        }

        /* Force a reschedule if it is the currently running task that has just
         * been deleted. */
        if( xSchedulerRunning != pdFALSE )
     bc8:	000287b7          	lui	a5,0x28
     bcc:	dec7a783          	lw	a5,-532(a5) # 27dec <xSchedulerRunning>
     bd0:	02078a63          	beqz	a5,c04 <vTaskDelete+0x1b4>
        {
            if( pxTCB == pxCurrentTCB )
     bd4:	000287b7          	lui	a5,0x28
     bd8:	c507a783          	lw	a5,-944(a5) # 27c50 <pxCurrentTCB>
     bdc:	fec42703          	lw	a4,-20(s0)
     be0:	02f71263          	bne	a4,a5,c04 <vTaskDelete+0x1b4>
            {
                configASSERT( uxSchedulerSuspended == 0 );
     be4:	000287b7          	lui	a5,0x28
     be8:	e087a783          	lw	a5,-504(a5) # 27e08 <uxSchedulerSuspended>
     bec:	00078a63          	beqz	a5,c00 <vTaskDelete+0x1b0>
     bf0:	30047073          	csrci	mstatus,8
     bf4:	00100073          	ebreak
     bf8:	00000013          	nop
     bfc:	ffdff06f          	j	bf8 <vTaskDelete+0x1a8>
                portYIELD_WITHIN_API();
     c00:	00000073          	ecall
            else
            {
                mtCOVERAGE_TEST_MARKER();
            }
        }
    }
     c04:	00000013          	nop
     c08:	02c12083          	lw	ra,44(sp)
     c0c:	02812403          	lw	s0,40(sp)
     c10:	03010113          	addi	sp,sp,48
     c14:	00008067          	ret

00000c18 <xTaskDelayUntil>:

#if ( INCLUDE_xTaskDelayUntil == 1 )

    BaseType_t xTaskDelayUntil( TickType_t * const pxPreviousWakeTime,
                                const TickType_t xTimeIncrement )
    {
     c18:	fd010113          	addi	sp,sp,-48
     c1c:	02112623          	sw	ra,44(sp)
     c20:	02812423          	sw	s0,40(sp)
     c24:	03010413          	addi	s0,sp,48
     c28:	fca42e23          	sw	a0,-36(s0)
     c2c:	fcb42c23          	sw	a1,-40(s0)
        TickType_t xTimeToWake;
        BaseType_t xAlreadyYielded, xShouldDelay = pdFALSE;
     c30:	fe042023          	sw	zero,-32(s0)

        configASSERT( pxPreviousWakeTime );
     c34:	fdc42783          	lw	a5,-36(s0)
     c38:	00079a63          	bnez	a5,c4c <xTaskDelayUntil+0x34>
     c3c:	30047073          	csrci	mstatus,8
     c40:	00100073          	ebreak
     c44:	00000013          	nop
     c48:	ffdff06f          	j	c44 <xTaskDelayUntil+0x2c>
        configASSERT( ( xTimeIncrement > 0U ) );
     c4c:	fd842783          	lw	a5,-40(s0)
     c50:	00079a63          	bnez	a5,c64 <xTaskDelayUntil+0x4c>
     c54:	30047073          	csrci	mstatus,8
     c58:	00100073          	ebreak
     c5c:	00000013          	nop
     c60:	ffdff06f          	j	c5c <xTaskDelayUntil+0x44>
        configASSERT( uxSchedulerSuspended == 0 );
     c64:	000287b7          	lui	a5,0x28
     c68:	e087a783          	lw	a5,-504(a5) # 27e08 <uxSchedulerSuspended>
     c6c:	00078a63          	beqz	a5,c80 <xTaskDelayUntil+0x68>
     c70:	30047073          	csrci	mstatus,8
     c74:	00100073          	ebreak
     c78:	00000013          	nop
     c7c:	ffdff06f          	j	c78 <xTaskDelayUntil+0x60>

        vTaskSuspendAll();
     c80:	60d000ef          	jal	ra,1a8c <vTaskSuspendAll>
        {
            /* Minor optimisation.  The tick count cannot change in this
             * block. */
            const TickType_t xConstTickCount = xTickCount;
     c84:	000287b7          	lui	a5,0x28
     c88:	de47a783          	lw	a5,-540(a5) # 27de4 <xTickCount>
     c8c:	fef42223          	sw	a5,-28(s0)

            /* Generate the tick time at which the task wants to wake. */
            xTimeToWake = *pxPreviousWakeTime + xTimeIncrement;
     c90:	fdc42783          	lw	a5,-36(s0)
     c94:	0007a783          	lw	a5,0(a5)
     c98:	fd842703          	lw	a4,-40(s0)
     c9c:	00f707b3          	add	a5,a4,a5
     ca0:	fef42423          	sw	a5,-24(s0)

            if( xConstTickCount < *pxPreviousWakeTime )
     ca4:	fdc42783          	lw	a5,-36(s0)
     ca8:	0007a783          	lw	a5,0(a5)
     cac:	fe442703          	lw	a4,-28(s0)
     cb0:	02f77663          	bgeu	a4,a5,cdc <xTaskDelayUntil+0xc4>
                /* The tick count has overflowed since this function was
                 * lasted called.  In this case the only time we should ever
                 * actually delay is if the wake time has also  overflowed,
                 * and the wake time is greater than the tick time.  When this
                 * is the case it is as if neither time had overflowed. */
                if( ( xTimeToWake < *pxPreviousWakeTime ) && ( xTimeToWake > xConstTickCount ) )
     cb4:	fdc42783          	lw	a5,-36(s0)
     cb8:	0007a783          	lw	a5,0(a5)
     cbc:	fe842703          	lw	a4,-24(s0)
     cc0:	04f77063          	bgeu	a4,a5,d00 <xTaskDelayUntil+0xe8>
     cc4:	fe842703          	lw	a4,-24(s0)
     cc8:	fe442783          	lw	a5,-28(s0)
     ccc:	02e7fa63          	bgeu	a5,a4,d00 <xTaskDelayUntil+0xe8>
                {
                    xShouldDelay = pdTRUE;
     cd0:	00100793          	li	a5,1
     cd4:	fef42023          	sw	a5,-32(s0)
     cd8:	0280006f          	j	d00 <xTaskDelayUntil+0xe8>
            else
            {
                /* The tick time has not overflowed.  In this case we will
                 * delay if either the wake time has overflowed, and/or the
                 * tick time is less than the wake time. */
                if( ( xTimeToWake < *pxPreviousWakeTime ) || ( xTimeToWake > xConstTickCount ) )
     cdc:	fdc42783          	lw	a5,-36(s0)
     ce0:	0007a783          	lw	a5,0(a5)
     ce4:	fe842703          	lw	a4,-24(s0)
     ce8:	00f76863          	bltu	a4,a5,cf8 <xTaskDelayUntil+0xe0>
     cec:	fe842703          	lw	a4,-24(s0)
     cf0:	fe442783          	lw	a5,-28(s0)
     cf4:	00e7f663          	bgeu	a5,a4,d00 <xTaskDelayUntil+0xe8>
                {
                    xShouldDelay = pdTRUE;
     cf8:	00100793          	li	a5,1
     cfc:	fef42023          	sw	a5,-32(s0)
                    mtCOVERAGE_TEST_MARKER();
                }
            }

            /* Update the wake time ready for the next call. */
            *pxPreviousWakeTime = xTimeToWake;
     d00:	fdc42783          	lw	a5,-36(s0)
     d04:	fe842703          	lw	a4,-24(s0)
     d08:	00e7a023          	sw	a4,0(a5)

            if( xShouldDelay != pdFALSE )
     d0c:	fe042783          	lw	a5,-32(s0)
     d10:	00078e63          	beqz	a5,d2c <xTaskDelayUntil+0x114>
            {
                traceTASK_DELAY_UNTIL( xTimeToWake );

                /* prvAddCurrentTaskToDelayedList() needs the block time, not
                 * the time to wake, so subtract the current tick count. */
                prvAddCurrentTaskToDelayedList( xTimeToWake - xConstTickCount, pdFALSE );
     d14:	fe842703          	lw	a4,-24(s0)
     d18:	fe442783          	lw	a5,-28(s0)
     d1c:	40f707b3          	sub	a5,a4,a5
     d20:	00000593          	li	a1,0
     d24:	00078513          	mv	a0,a5
     d28:	734040ef          	jal	ra,545c <prvAddCurrentTaskToDelayedList>
            else
            {
                mtCOVERAGE_TEST_MARKER();
            }
        }
        xAlreadyYielded = xTaskResumeAll();
     d2c:	591000ef          	jal	ra,1abc <xTaskResumeAll>
     d30:	fea42623          	sw	a0,-20(s0)

        /* Force a reschedule if xTaskResumeAll has not already done so, we may
         * have put ourselves to sleep. */
        if( xAlreadyYielded == pdFALSE )
     d34:	fec42783          	lw	a5,-20(s0)
     d38:	00079463          	bnez	a5,d40 <xTaskDelayUntil+0x128>
        {
            portYIELD_WITHIN_API();
     d3c:	00000073          	ecall
        else
        {
            mtCOVERAGE_TEST_MARKER();
        }

        return xShouldDelay;
     d40:	fe042783          	lw	a5,-32(s0)
    }
     d44:	00078513          	mv	a0,a5
     d48:	02c12083          	lw	ra,44(sp)
     d4c:	02812403          	lw	s0,40(sp)
     d50:	03010113          	addi	sp,sp,48
     d54:	00008067          	ret

00000d58 <vTaskDelay>:
/*-----------------------------------------------------------*/

#if ( INCLUDE_vTaskDelay == 1 )

    void vTaskDelay( const TickType_t xTicksToDelay )
    {
     d58:	fd010113          	addi	sp,sp,-48
     d5c:	02112623          	sw	ra,44(sp)
     d60:	02812423          	sw	s0,40(sp)
     d64:	03010413          	addi	s0,sp,48
     d68:	fca42e23          	sw	a0,-36(s0)
        BaseType_t xAlreadyYielded = pdFALSE;
     d6c:	fe042623          	sw	zero,-20(s0)

        /* A delay time of zero just forces a reschedule. */
        if( xTicksToDelay > ( TickType_t ) 0U )
     d70:	fdc42783          	lw	a5,-36(s0)
     d74:	02078c63          	beqz	a5,dac <vTaskDelay+0x54>
        {
            configASSERT( uxSchedulerSuspended == 0 );
     d78:	000287b7          	lui	a5,0x28
     d7c:	e087a783          	lw	a5,-504(a5) # 27e08 <uxSchedulerSuspended>
     d80:	00078a63          	beqz	a5,d94 <vTaskDelay+0x3c>
     d84:	30047073          	csrci	mstatus,8
     d88:	00100073          	ebreak
     d8c:	00000013          	nop
     d90:	ffdff06f          	j	d8c <vTaskDelay+0x34>
            vTaskSuspendAll();
     d94:	4f9000ef          	jal	ra,1a8c <vTaskSuspendAll>
                 * list or removed from the blocked list until the scheduler
                 * is resumed.
                 *
                 * This task cannot be in an event list as it is the currently
                 * executing task. */
                prvAddCurrentTaskToDelayedList( xTicksToDelay, pdFALSE );
     d98:	00000593          	li	a1,0
     d9c:	fdc42503          	lw	a0,-36(s0)
     da0:	6bc040ef          	jal	ra,545c <prvAddCurrentTaskToDelayedList>
            }
            xAlreadyYielded = xTaskResumeAll();
     da4:	519000ef          	jal	ra,1abc <xTaskResumeAll>
     da8:	fea42623          	sw	a0,-20(s0)
            mtCOVERAGE_TEST_MARKER();
        }

        /* Force a reschedule if xTaskResumeAll has not already done so, we may
         * have put ourselves to sleep. */
        if( xAlreadyYielded == pdFALSE )
     dac:	fec42783          	lw	a5,-20(s0)
     db0:	00079463          	bnez	a5,db8 <vTaskDelay+0x60>
        {
            portYIELD_WITHIN_API();
     db4:	00000073          	ecall
        }
        else
        {
            mtCOVERAGE_TEST_MARKER();
        }
    }
     db8:	00000013          	nop
     dbc:	02c12083          	lw	ra,44(sp)
     dc0:	02812403          	lw	s0,40(sp)
     dc4:	03010113          	addi	sp,sp,48
     dc8:	00008067          	ret

00000dcc <eTaskGetState>:
/*-----------------------------------------------------------*/

#if ( ( INCLUDE_eTaskGetState == 1 ) || ( configUSE_TRACE_FACILITY == 1 ) || ( INCLUDE_xTaskAbortDelay == 1 ) )

    eTaskState eTaskGetState( TaskHandle_t xTask )
    {
     dcc:	fc010113          	addi	sp,sp,-64
     dd0:	02812e23          	sw	s0,60(sp)
     dd4:	04010413          	addi	s0,sp,64
     dd8:	fca42623          	sw	a0,-52(s0)
        eTaskState eReturn;
        List_t const * pxStateList, * pxDelayedList, * pxOverflowedDelayedList;
        const TCB_t * const pxTCB = xTask;
     ddc:	fcc42783          	lw	a5,-52(s0)
     de0:	fef42023          	sw	a5,-32(s0)

        configASSERT( pxTCB );
     de4:	fe042783          	lw	a5,-32(s0)
     de8:	00079a63          	bnez	a5,dfc <eTaskGetState+0x30>
     dec:	30047073          	csrci	mstatus,8
     df0:	00100073          	ebreak
     df4:	00000013          	nop
     df8:	ffdff06f          	j	df4 <eTaskGetState+0x28>

        if( pxTCB == pxCurrentTCB )
     dfc:	000287b7          	lui	a5,0x28
     e00:	c507a783          	lw	a5,-944(a5) # 27c50 <pxCurrentTCB>
     e04:	fe042703          	lw	a4,-32(s0)
     e08:	00f71663          	bne	a4,a5,e14 <eTaskGetState+0x48>
        {
            /* The task calling this function is querying its own state. */
            eReturn = eRunning;
     e0c:	fc042c23          	sw	zero,-40(s0)
     e10:	12c0006f          	j	f3c <eTaskGetState+0x170>
        }
        else
        {
            taskENTER_CRITICAL();
     e14:	30047073          	csrci	mstatus,8
     e18:	000267b7          	lui	a5,0x26
     e1c:	0147a783          	lw	a5,20(a5) # 26014 <xCriticalNesting>
     e20:	00178713          	addi	a4,a5,1
     e24:	000267b7          	lui	a5,0x26
     e28:	00e7aa23          	sw	a4,20(a5) # 26014 <xCriticalNesting>
            {
                pxStateList = listLIST_ITEM_CONTAINER( &( pxTCB->xStateListItem ) );
     e2c:	fe042783          	lw	a5,-32(s0)
     e30:	0147a783          	lw	a5,20(a5)
     e34:	fef42223          	sw	a5,-28(s0)
                pxDelayedList = pxDelayedTaskList;
     e38:	000287b7          	lui	a5,0x28
     e3c:	d987a783          	lw	a5,-616(a5) # 27d98 <pxDelayedTaskList>
     e40:	fef42423          	sw	a5,-24(s0)
                pxOverflowedDelayedList = pxOverflowDelayedTaskList;
     e44:	000287b7          	lui	a5,0x28
     e48:	d9c7a783          	lw	a5,-612(a5) # 27d9c <pxOverflowDelayedTaskList>
     e4c:	fef42623          	sw	a5,-20(s0)
            }
            taskEXIT_CRITICAL();
     e50:	000267b7          	lui	a5,0x26
     e54:	0147a783          	lw	a5,20(a5) # 26014 <xCriticalNesting>
     e58:	fff78713          	addi	a4,a5,-1
     e5c:	000267b7          	lui	a5,0x26
     e60:	00e7aa23          	sw	a4,20(a5) # 26014 <xCriticalNesting>
     e64:	000267b7          	lui	a5,0x26
     e68:	0147a783          	lw	a5,20(a5) # 26014 <xCriticalNesting>
     e6c:	00079463          	bnez	a5,e74 <eTaskGetState+0xa8>
     e70:	30046073          	csrsi	mstatus,8

            if( ( pxStateList == pxDelayedList ) || ( pxStateList == pxOverflowedDelayedList ) )
     e74:	fe442703          	lw	a4,-28(s0)
     e78:	fe842783          	lw	a5,-24(s0)
     e7c:	00f70863          	beq	a4,a5,e8c <eTaskGetState+0xc0>
     e80:	fe442703          	lw	a4,-28(s0)
     e84:	fec42783          	lw	a5,-20(s0)
     e88:	00f71863          	bne	a4,a5,e98 <eTaskGetState+0xcc>
            {
                /* The task being queried is referenced from one of the Blocked
                 * lists. */
                eReturn = eBlocked;
     e8c:	00200793          	li	a5,2
     e90:	fcf42c23          	sw	a5,-40(s0)
     e94:	0a80006f          	j	f3c <eTaskGetState+0x170>
            }

            #if ( INCLUDE_vTaskSuspend == 1 )
                else if( pxStateList == &xSuspendedTaskList )
     e98:	fe442703          	lw	a4,-28(s0)
     e9c:	000287b7          	lui	a5,0x28
     ea0:	dcc78793          	addi	a5,a5,-564 # 27dcc <xSuspendedTaskList>
     ea4:	06f71663          	bne	a4,a5,f10 <eTaskGetState+0x144>
                {
                    /* The task being queried is referenced from the suspended
                     * list.  Is it genuinely suspended or is it blocked
                     * indefinitely? */
                    if( listLIST_ITEM_CONTAINER( &( pxTCB->xEventListItem ) ) == NULL )
     ea8:	fe042783          	lw	a5,-32(s0)
     eac:	0287a783          	lw	a5,40(a5)
     eb0:	04079a63          	bnez	a5,f04 <eTaskGetState+0x138>
                            /* The task does not appear on the event list item of
                             * and of the RTOS objects, but could still be in the
                             * blocked state if it is waiting on its notification
                             * rather than waiting on an object.  If not, is
                             * suspended. */
                            eReturn = eSuspended;
     eb4:	00300793          	li	a5,3
     eb8:	fcf42c23          	sw	a5,-40(s0)

                            for( x = 0; x < configTASK_NOTIFICATION_ARRAY_ENTRIES; x++ )
     ebc:	fc042e23          	sw	zero,-36(s0)
     ec0:	0380006f          	j	ef8 <eTaskGetState+0x12c>
                            {
                                if( pxTCB->ucNotifyState[ x ] == taskWAITING_NOTIFICATION )
     ec4:	fe042703          	lw	a4,-32(s0)
     ec8:	fdc42783          	lw	a5,-36(s0)
     ecc:	00f707b3          	add	a5,a4,a5
     ed0:	5847c783          	lbu	a5,1412(a5)
     ed4:	0ff7f713          	zext.b	a4,a5
     ed8:	00100793          	li	a5,1
     edc:	00f71863          	bne	a4,a5,eec <eTaskGetState+0x120>
                                {
                                    eReturn = eBlocked;
     ee0:	00200793          	li	a5,2
     ee4:	fcf42c23          	sw	a5,-40(s0)
                                    break;
     ee8:	0540006f          	j	f3c <eTaskGetState+0x170>
                            for( x = 0; x < configTASK_NOTIFICATION_ARRAY_ENTRIES; x++ )
     eec:	fdc42783          	lw	a5,-36(s0)
     ef0:	00178793          	addi	a5,a5,1
     ef4:	fcf42e23          	sw	a5,-36(s0)
     ef8:	fdc42783          	lw	a5,-36(s0)
     efc:	fcf054e3          	blez	a5,ec4 <eTaskGetState+0xf8>
     f00:	03c0006f          	j	f3c <eTaskGetState+0x170>
                        }
                        #endif /* if ( configUSE_TASK_NOTIFICATIONS == 1 ) */
                    }
                    else
                    {
                        eReturn = eBlocked;
     f04:	00200793          	li	a5,2
     f08:	fcf42c23          	sw	a5,-40(s0)
     f0c:	0300006f          	j	f3c <eTaskGetState+0x170>
                    }
                }
            #endif /* if ( INCLUDE_vTaskSuspend == 1 ) */

            #if ( INCLUDE_vTaskDelete == 1 )
                else if( ( pxStateList == &xTasksWaitingTermination ) || ( pxStateList == NULL ) )
     f10:	fe442703          	lw	a4,-28(s0)
     f14:	000287b7          	lui	a5,0x28
     f18:	db478793          	addi	a5,a5,-588 # 27db4 <xTasksWaitingTermination>
     f1c:	00f70663          	beq	a4,a5,f28 <eTaskGetState+0x15c>
     f20:	fe442783          	lw	a5,-28(s0)
     f24:	00079863          	bnez	a5,f34 <eTaskGetState+0x168>
                {
                    /* The task being queried is referenced from the deleted
                     * tasks list, or it is not referenced from any lists at
                     * all. */
                    eReturn = eDeleted;
     f28:	00400793          	li	a5,4
     f2c:	fcf42c23          	sw	a5,-40(s0)
     f30:	00c0006f          	j	f3c <eTaskGetState+0x170>

            else /*lint !e525 Negative indentation is intended to make use of pre-processor clearer. */
            {
                /* If the task is not in any other state, it must be in the
                 * Ready (including pending ready) state. */
                eReturn = eReady;
     f34:	00100793          	li	a5,1
     f38:	fcf42c23          	sw	a5,-40(s0)
            }
        }

        return eReturn;
     f3c:	fd842783          	lw	a5,-40(s0)
    } /*lint !e818 xTask cannot be a pointer to const because it is a typedef. */
     f40:	00078513          	mv	a0,a5
     f44:	03c12403          	lw	s0,60(sp)
     f48:	04010113          	addi	sp,sp,64
     f4c:	00008067          	ret

00000f50 <uxTaskPriorityGet>:
/*-----------------------------------------------------------*/

#if ( INCLUDE_uxTaskPriorityGet == 1 )

    UBaseType_t uxTaskPriorityGet( const TaskHandle_t xTask )
    {
     f50:	fd010113          	addi	sp,sp,-48
     f54:	02812623          	sw	s0,44(sp)
     f58:	03010413          	addi	s0,sp,48
     f5c:	fca42e23          	sw	a0,-36(s0)
        TCB_t const * pxTCB;
        UBaseType_t uxReturn;

        taskENTER_CRITICAL();
     f60:	30047073          	csrci	mstatus,8
     f64:	000267b7          	lui	a5,0x26
     f68:	0147a783          	lw	a5,20(a5) # 26014 <xCriticalNesting>
     f6c:	00178713          	addi	a4,a5,1
     f70:	000267b7          	lui	a5,0x26
     f74:	00e7aa23          	sw	a4,20(a5) # 26014 <xCriticalNesting>
        {
            /* If null is passed in here then it is the priority of the task
             * that called uxTaskPriorityGet() that is being queried. */
            pxTCB = prvGetTCBFromHandle( xTask );
     f78:	fdc42783          	lw	a5,-36(s0)
     f7c:	00079863          	bnez	a5,f8c <uxTaskPriorityGet+0x3c>
     f80:	000287b7          	lui	a5,0x28
     f84:	c507a783          	lw	a5,-944(a5) # 27c50 <pxCurrentTCB>
     f88:	0080006f          	j	f90 <uxTaskPriorityGet+0x40>
     f8c:	fdc42783          	lw	a5,-36(s0)
     f90:	fef42423          	sw	a5,-24(s0)
            uxReturn = pxTCB->uxPriority;
     f94:	fe842783          	lw	a5,-24(s0)
     f98:	02c7a783          	lw	a5,44(a5)
     f9c:	fef42623          	sw	a5,-20(s0)
        }
        taskEXIT_CRITICAL();
     fa0:	000267b7          	lui	a5,0x26
     fa4:	0147a783          	lw	a5,20(a5) # 26014 <xCriticalNesting>
     fa8:	fff78713          	addi	a4,a5,-1
     fac:	000267b7          	lui	a5,0x26
     fb0:	00e7aa23          	sw	a4,20(a5) # 26014 <xCriticalNesting>
     fb4:	000267b7          	lui	a5,0x26
     fb8:	0147a783          	lw	a5,20(a5) # 26014 <xCriticalNesting>
     fbc:	00079463          	bnez	a5,fc4 <uxTaskPriorityGet+0x74>
     fc0:	30046073          	csrsi	mstatus,8

        return uxReturn;
     fc4:	fec42783          	lw	a5,-20(s0)
    }
     fc8:	00078513          	mv	a0,a5
     fcc:	02c12403          	lw	s0,44(sp)
     fd0:	03010113          	addi	sp,sp,48
     fd4:	00008067          	ret

00000fd8 <uxTaskPriorityGetFromISR>:
/*-----------------------------------------------------------*/

#if ( INCLUDE_uxTaskPriorityGet == 1 )

    UBaseType_t uxTaskPriorityGetFromISR( const TaskHandle_t xTask )
    {
     fd8:	fd010113          	addi	sp,sp,-48
     fdc:	02812623          	sw	s0,44(sp)
     fe0:	03010413          	addi	s0,sp,48
     fe4:	fca42e23          	sw	a0,-36(s0)
         * simple as possible.  More information (albeit Cortex-M specific) is
         * provided on the following link:
         * https://www.FreeRTOS.org/RTOS-Cortex-M3-M4.html */
        portASSERT_IF_INTERRUPT_PRIORITY_INVALID();

        uxSavedInterruptState = portSET_INTERRUPT_MASK_FROM_ISR();
     fe8:	fe042223          	sw	zero,-28(s0)
        {
            /* If null is passed in here then it is the priority of the calling
             * task that is being queried. */
            pxTCB = prvGetTCBFromHandle( xTask );
     fec:	fdc42783          	lw	a5,-36(s0)
     ff0:	00079863          	bnez	a5,1000 <uxTaskPriorityGetFromISR+0x28>
     ff4:	000287b7          	lui	a5,0x28
     ff8:	c507a783          	lw	a5,-944(a5) # 27c50 <pxCurrentTCB>
     ffc:	0080006f          	j	1004 <uxTaskPriorityGetFromISR+0x2c>
    1000:	fdc42783          	lw	a5,-36(s0)
    1004:	fef42423          	sw	a5,-24(s0)
            uxReturn = pxTCB->uxPriority;
    1008:	fe842783          	lw	a5,-24(s0)
    100c:	02c7a783          	lw	a5,44(a5)
    1010:	fef42623          	sw	a5,-20(s0)
        }
        portCLEAR_INTERRUPT_MASK_FROM_ISR( uxSavedInterruptState );

        return uxReturn;
    1014:	fec42783          	lw	a5,-20(s0)
    }
    1018:	00078513          	mv	a0,a5
    101c:	02c12403          	lw	s0,44(sp)
    1020:	03010113          	addi	sp,sp,48
    1024:	00008067          	ret

00001028 <vTaskPrioritySet>:

#if ( INCLUDE_vTaskPrioritySet == 1 )

    void vTaskPrioritySet( TaskHandle_t xTask,
                           UBaseType_t uxNewPriority )
    {
    1028:	fc010113          	addi	sp,sp,-64
    102c:	02112e23          	sw	ra,60(sp)
    1030:	02812c23          	sw	s0,56(sp)
    1034:	04010413          	addi	s0,sp,64
    1038:	fca42623          	sw	a0,-52(s0)
    103c:	fcb42423          	sw	a1,-56(s0)
        TCB_t * pxTCB;
        UBaseType_t uxCurrentBasePriority, uxPriorityUsedOnEntry;
        BaseType_t xYieldRequired = pdFALSE;
    1040:	fc042e23          	sw	zero,-36(s0)

        configASSERT( uxNewPriority < configMAX_PRIORITIES );
    1044:	fc842703          	lw	a4,-56(s0)
    1048:	00600793          	li	a5,6
    104c:	00e7fa63          	bgeu	a5,a4,1060 <vTaskPrioritySet+0x38>
    1050:	30047073          	csrci	mstatus,8
    1054:	00100073          	ebreak
    1058:	00000013          	nop
    105c:	ffdff06f          	j	1058 <vTaskPrioritySet+0x30>

        /* Ensure the new priority is valid. */
        if( uxNewPriority >= ( UBaseType_t ) configMAX_PRIORITIES )
    1060:	fc842703          	lw	a4,-56(s0)
    1064:	00600793          	li	a5,6
    1068:	00e7f663          	bgeu	a5,a4,1074 <vTaskPrioritySet+0x4c>
        {
            uxNewPriority = ( UBaseType_t ) configMAX_PRIORITIES - ( UBaseType_t ) 1U;
    106c:	00600793          	li	a5,6
    1070:	fcf42423          	sw	a5,-56(s0)
        else
        {
            mtCOVERAGE_TEST_MARKER();
        }

        taskENTER_CRITICAL();
    1074:	30047073          	csrci	mstatus,8
    1078:	000267b7          	lui	a5,0x26
    107c:	0147a783          	lw	a5,20(a5) # 26014 <xCriticalNesting>
    1080:	00178713          	addi	a4,a5,1
    1084:	000267b7          	lui	a5,0x26
    1088:	00e7aa23          	sw	a4,20(a5) # 26014 <xCriticalNesting>
        {
            /* If null is passed in here then it is the priority of the calling
             * task that is being changed. */
            pxTCB = prvGetTCBFromHandle( xTask );
    108c:	fcc42783          	lw	a5,-52(s0)
    1090:	00079863          	bnez	a5,10a0 <vTaskPrioritySet+0x78>
    1094:	000287b7          	lui	a5,0x28
    1098:	c507a783          	lw	a5,-944(a5) # 27c50 <pxCurrentTCB>
    109c:	0080006f          	j	10a4 <vTaskPrioritySet+0x7c>
    10a0:	fcc42783          	lw	a5,-52(s0)
    10a4:	fef42023          	sw	a5,-32(s0)

            traceTASK_PRIORITY_SET( pxTCB, uxNewPriority );

            #if ( configUSE_MUTEXES == 1 )
            {
                uxCurrentBasePriority = pxTCB->uxBasePriority;
    10a8:	fe042783          	lw	a5,-32(s0)
    10ac:	04c7a783          	lw	a5,76(a5)
    10b0:	fef42223          	sw	a5,-28(s0)
            {
                uxCurrentBasePriority = pxTCB->uxPriority;
            }
            #endif

            if( uxCurrentBasePriority != uxNewPriority )
    10b4:	fe442703          	lw	a4,-28(s0)
    10b8:	fc842783          	lw	a5,-56(s0)
    10bc:	22f70663          	beq	a4,a5,12e8 <vTaskPrioritySet+0x2c0>
            {
                /* The priority change may have readied a task of higher
                 * priority than the calling task. */
                if( uxNewPriority > uxCurrentBasePriority )
    10c0:	fc842703          	lw	a4,-56(s0)
    10c4:	fe442783          	lw	a5,-28(s0)
    10c8:	02e7fa63          	bgeu	a5,a4,10fc <vTaskPrioritySet+0xd4>
                {
                    if( pxTCB != pxCurrentTCB )
    10cc:	000287b7          	lui	a5,0x28
    10d0:	c507a783          	lw	a5,-944(a5) # 27c50 <pxCurrentTCB>
    10d4:	fe042703          	lw	a4,-32(s0)
    10d8:	02f70e63          	beq	a4,a5,1114 <vTaskPrioritySet+0xec>
                    {
                        /* The priority of a task other than the currently
                         * running task is being raised.  Is the priority being
                         * raised above that of the running task? */
                        if( uxNewPriority >= pxCurrentTCB->uxPriority )
    10dc:	000287b7          	lui	a5,0x28
    10e0:	c507a783          	lw	a5,-944(a5) # 27c50 <pxCurrentTCB>
    10e4:	02c7a783          	lw	a5,44(a5)
    10e8:	fc842703          	lw	a4,-56(s0)
    10ec:	02f76463          	bltu	a4,a5,1114 <vTaskPrioritySet+0xec>
                        {
                            xYieldRequired = pdTRUE;
    10f0:	00100793          	li	a5,1
    10f4:	fcf42e23          	sw	a5,-36(s0)
    10f8:	01c0006f          	j	1114 <vTaskPrioritySet+0xec>
                        /* The priority of the running task is being raised,
                         * but the running task must already be the highest
                         * priority task able to run so no yield is required. */
                    }
                }
                else if( pxTCB == pxCurrentTCB )
    10fc:	000287b7          	lui	a5,0x28
    1100:	c507a783          	lw	a5,-944(a5) # 27c50 <pxCurrentTCB>
    1104:	fe042703          	lw	a4,-32(s0)
    1108:	00f71663          	bne	a4,a5,1114 <vTaskPrioritySet+0xec>
                {
                    /* Setting the priority of the running task down means
                     * there may now be another task of higher priority that
                     * is ready to execute. */
                    xYieldRequired = pdTRUE;
    110c:	00100793          	li	a5,1
    1110:	fcf42e23          	sw	a5,-36(s0)
                }

                /* Remember the ready list the task might be referenced from
                 * before its uxPriority member is changed so the
                 * taskRESET_READY_PRIORITY() macro can function correctly. */
                uxPriorityUsedOnEntry = pxTCB->uxPriority;
    1114:	fe042783          	lw	a5,-32(s0)
    1118:	02c7a783          	lw	a5,44(a5)
    111c:	fef42423          	sw	a5,-24(s0)

                #if ( configUSE_MUTEXES == 1 )
                {
                    /* Only change the priority being used if the task is not
                     * currently using an inherited priority. */
                    if( pxTCB->uxBasePriority == pxTCB->uxPriority )
    1120:	fe042783          	lw	a5,-32(s0)
    1124:	04c7a703          	lw	a4,76(a5)
    1128:	fe042783          	lw	a5,-32(s0)
    112c:	02c7a783          	lw	a5,44(a5)
    1130:	00f71863          	bne	a4,a5,1140 <vTaskPrioritySet+0x118>
                    {
                        pxTCB->uxPriority = uxNewPriority;
    1134:	fe042783          	lw	a5,-32(s0)
    1138:	fc842703          	lw	a4,-56(s0)
    113c:	02e7a623          	sw	a4,44(a5)
                    {
                        mtCOVERAGE_TEST_MARKER();
                    }

                    /* The base priority gets set whatever. */
                    pxTCB->uxBasePriority = uxNewPriority;
    1140:	fe042783          	lw	a5,-32(s0)
    1144:	fc842703          	lw	a4,-56(s0)
    1148:	04e7a623          	sw	a4,76(a5)
                }
                #endif /* if ( configUSE_MUTEXES == 1 ) */

                /* Only reset the event list item value if the value is not
                 * being used for anything else. */
                if( ( listGET_LIST_ITEM_VALUE( &( pxTCB->xEventListItem ) ) & taskEVENT_LIST_ITEM_VALUE_IN_USE ) == 0UL )
    114c:	fe042783          	lw	a5,-32(s0)
    1150:	0187a783          	lw	a5,24(a5)
    1154:	0007cc63          	bltz	a5,116c <vTaskPrioritySet+0x144>
                {
                    listSET_LIST_ITEM_VALUE( &( pxTCB->xEventListItem ), ( ( TickType_t ) configMAX_PRIORITIES - ( TickType_t ) uxNewPriority ) ); /*lint !e961 MISRA exception as the casts are only redundant for some ports. */
    1158:	00700713          	li	a4,7
    115c:	fc842783          	lw	a5,-56(s0)
    1160:	40f70733          	sub	a4,a4,a5
    1164:	fe042783          	lw	a5,-32(s0)
    1168:	00e7ac23          	sw	a4,24(a5)

                /* If the task is in the blocked or suspended list we need do
                 * nothing more than change its priority variable. However, if
                 * the task is in a ready list it needs to be removed and placed
                 * in the list appropriate to its new priority. */
                if( listIS_CONTAINED_WITHIN( &( pxReadyTasksLists[ uxPriorityUsedOnEntry ] ), &( pxTCB->xStateListItem ) ) != pdFALSE )
    116c:	fe042783          	lw	a5,-32(s0)
    1170:	0147a683          	lw	a3,20(a5)
    1174:	fe842703          	lw	a4,-24(s0)
    1178:	00070793          	mv	a5,a4
    117c:	00279793          	slli	a5,a5,0x2
    1180:	00e787b3          	add	a5,a5,a4
    1184:	00279793          	slli	a5,a5,0x2
    1188:	00028737          	lui	a4,0x28
    118c:	ce470713          	addi	a4,a4,-796 # 27ce4 <pxReadyTasksLists>
    1190:	00e787b3          	add	a5,a5,a4
    1194:	14f69463          	bne	a3,a5,12dc <vTaskPrioritySet+0x2b4>
                {
                    /* The task is currently in its ready list - remove before
                     * adding it to its new ready list.  As we are in a critical
                     * section we can do this even if the scheduler is suspended. */
                    if( uxListRemove( &( pxTCB->xStateListItem ) ) == ( UBaseType_t ) 0 )
    1198:	fe042783          	lw	a5,-32(s0)
    119c:	00478793          	addi	a5,a5,4
    11a0:	00078513          	mv	a0,a5
    11a4:	4c4080ef          	jal	ra,9668 <uxListRemove>
    11a8:	00050793          	mv	a5,a0
    11ac:	02079463          	bnez	a5,11d4 <vTaskPrioritySet+0x1ac>
                    {
                        /* It is known that the task is in its ready list so
                         * there is no need to check again and the port level
                         * reset macro can be called directly. */
                        portRESET_READY_PRIORITY( uxPriorityUsedOnEntry, uxTopReadyPriority );
    11b0:	fe842783          	lw	a5,-24(s0)
    11b4:	00100713          	li	a4,1
    11b8:	00f717b3          	sll	a5,a4,a5
    11bc:	fff7c713          	not	a4,a5
    11c0:	000287b7          	lui	a5,0x28
    11c4:	de87a783          	lw	a5,-536(a5) # 27de8 <uxTopReadyPriority>
    11c8:	00f77733          	and	a4,a4,a5
    11cc:	000287b7          	lui	a5,0x28
    11d0:	dee7a423          	sw	a4,-536(a5) # 27de8 <uxTopReadyPriority>
                    else
                    {
                        mtCOVERAGE_TEST_MARKER();
                    }

                    prvAddTaskToReadyList( pxTCB );
    11d4:	fe042783          	lw	a5,-32(s0)
    11d8:	02c7a783          	lw	a5,44(a5)
    11dc:	00100713          	li	a4,1
    11e0:	00f71733          	sll	a4,a4,a5
    11e4:	000287b7          	lui	a5,0x28
    11e8:	de87a783          	lw	a5,-536(a5) # 27de8 <uxTopReadyPriority>
    11ec:	00f76733          	or	a4,a4,a5
    11f0:	000287b7          	lui	a5,0x28
    11f4:	dee7a423          	sw	a4,-536(a5) # 27de8 <uxTopReadyPriority>
    11f8:	fe042783          	lw	a5,-32(s0)
    11fc:	02c7a703          	lw	a4,44(a5)
    1200:	000287b7          	lui	a5,0x28
    1204:	ce478693          	addi	a3,a5,-796 # 27ce4 <pxReadyTasksLists>
    1208:	00070793          	mv	a5,a4
    120c:	00279793          	slli	a5,a5,0x2
    1210:	00e787b3          	add	a5,a5,a4
    1214:	00279793          	slli	a5,a5,0x2
    1218:	00f687b3          	add	a5,a3,a5
    121c:	0047a783          	lw	a5,4(a5)
    1220:	fef42623          	sw	a5,-20(s0)
    1224:	fe042783          	lw	a5,-32(s0)
    1228:	fec42703          	lw	a4,-20(s0)
    122c:	00e7a423          	sw	a4,8(a5)
    1230:	fec42783          	lw	a5,-20(s0)
    1234:	0087a703          	lw	a4,8(a5)
    1238:	fe042783          	lw	a5,-32(s0)
    123c:	00e7a623          	sw	a4,12(a5)
    1240:	fec42783          	lw	a5,-20(s0)
    1244:	0087a783          	lw	a5,8(a5)
    1248:	fe042703          	lw	a4,-32(s0)
    124c:	00470713          	addi	a4,a4,4
    1250:	00e7a223          	sw	a4,4(a5)
    1254:	fe042783          	lw	a5,-32(s0)
    1258:	00478713          	addi	a4,a5,4
    125c:	fec42783          	lw	a5,-20(s0)
    1260:	00e7a423          	sw	a4,8(a5)
    1264:	fe042783          	lw	a5,-32(s0)
    1268:	02c7a703          	lw	a4,44(a5)
    126c:	00070793          	mv	a5,a4
    1270:	00279793          	slli	a5,a5,0x2
    1274:	00e787b3          	add	a5,a5,a4
    1278:	00279793          	slli	a5,a5,0x2
    127c:	00028737          	lui	a4,0x28
    1280:	ce470713          	addi	a4,a4,-796 # 27ce4 <pxReadyTasksLists>
    1284:	00e78733          	add	a4,a5,a4
    1288:	fe042783          	lw	a5,-32(s0)
    128c:	00e7aa23          	sw	a4,20(a5)
    1290:	fe042783          	lw	a5,-32(s0)
    1294:	02c7a703          	lw	a4,44(a5)
    1298:	000287b7          	lui	a5,0x28
    129c:	ce478693          	addi	a3,a5,-796 # 27ce4 <pxReadyTasksLists>
    12a0:	00070793          	mv	a5,a4
    12a4:	00279793          	slli	a5,a5,0x2
    12a8:	00e787b3          	add	a5,a5,a4
    12ac:	00279793          	slli	a5,a5,0x2
    12b0:	00f687b3          	add	a5,a3,a5
    12b4:	0007a783          	lw	a5,0(a5)
    12b8:	00178693          	addi	a3,a5,1
    12bc:	000287b7          	lui	a5,0x28
    12c0:	ce478613          	addi	a2,a5,-796 # 27ce4 <pxReadyTasksLists>
    12c4:	00070793          	mv	a5,a4
    12c8:	00279793          	slli	a5,a5,0x2
    12cc:	00e787b3          	add	a5,a5,a4
    12d0:	00279793          	slli	a5,a5,0x2
    12d4:	00f607b3          	add	a5,a2,a5
    12d8:	00d7a023          	sw	a3,0(a5)
                else
                {
                    mtCOVERAGE_TEST_MARKER();
                }

                if( xYieldRequired != pdFALSE )
    12dc:	fdc42783          	lw	a5,-36(s0)
    12e0:	00078463          	beqz	a5,12e8 <vTaskPrioritySet+0x2c0>
                {
                    taskYIELD_IF_USING_PREEMPTION();
    12e4:	00000073          	ecall
                /* Remove compiler warning about unused variables when the port
                 * optimised task selection is not being used. */
                ( void ) uxPriorityUsedOnEntry;
            }
        }
        taskEXIT_CRITICAL();
    12e8:	000267b7          	lui	a5,0x26
    12ec:	0147a783          	lw	a5,20(a5) # 26014 <xCriticalNesting>
    12f0:	fff78713          	addi	a4,a5,-1
    12f4:	000267b7          	lui	a5,0x26
    12f8:	00e7aa23          	sw	a4,20(a5) # 26014 <xCriticalNesting>
    12fc:	000267b7          	lui	a5,0x26
    1300:	0147a783          	lw	a5,20(a5) # 26014 <xCriticalNesting>
    1304:	00079463          	bnez	a5,130c <vTaskPrioritySet+0x2e4>
    1308:	30046073          	csrsi	mstatus,8
    }
    130c:	00000013          	nop
    1310:	03c12083          	lw	ra,60(sp)
    1314:	03812403          	lw	s0,56(sp)
    1318:	04010113          	addi	sp,sp,64
    131c:	00008067          	ret

00001320 <vTaskSuspend>:
/*-----------------------------------------------------------*/

#if ( INCLUDE_vTaskSuspend == 1 )

    void vTaskSuspend( TaskHandle_t xTaskToSuspend )
    {
    1320:	fd010113          	addi	sp,sp,-48
    1324:	02112623          	sw	ra,44(sp)
    1328:	02812423          	sw	s0,40(sp)
    132c:	03010413          	addi	s0,sp,48
    1330:	fca42e23          	sw	a0,-36(s0)
        TCB_t * pxTCB;

        taskENTER_CRITICAL();
    1334:	30047073          	csrci	mstatus,8
    1338:	000267b7          	lui	a5,0x26
    133c:	0147a783          	lw	a5,20(a5) # 26014 <xCriticalNesting>
    1340:	00178713          	addi	a4,a5,1
    1344:	000267b7          	lui	a5,0x26
    1348:	00e7aa23          	sw	a4,20(a5) # 26014 <xCriticalNesting>
        {
            /* If null is passed in here then it is the running task that is
             * being suspended. */
            pxTCB = prvGetTCBFromHandle( xTaskToSuspend );
    134c:	fdc42783          	lw	a5,-36(s0)
    1350:	00079863          	bnez	a5,1360 <vTaskSuspend+0x40>
    1354:	000287b7          	lui	a5,0x28
    1358:	c507a783          	lw	a5,-944(a5) # 27c50 <pxCurrentTCB>
    135c:	0080006f          	j	1364 <vTaskSuspend+0x44>
    1360:	fdc42783          	lw	a5,-36(s0)
    1364:	fef42623          	sw	a5,-20(s0)

            traceTASK_SUSPEND( pxTCB );

            /* Remove task from the ready/delayed list and place in the
             * suspended list. */
            if( uxListRemove( &( pxTCB->xStateListItem ) ) == ( UBaseType_t ) 0 )
    1368:	fec42783          	lw	a5,-20(s0)
    136c:	00478793          	addi	a5,a5,4
    1370:	00078513          	mv	a0,a5
    1374:	2f4080ef          	jal	ra,9668 <uxListRemove>
    1378:	00050793          	mv	a5,a0
    137c:	04079c63          	bnez	a5,13d4 <vTaskSuspend+0xb4>
            {
                taskRESET_READY_PRIORITY( pxTCB->uxPriority );
    1380:	fec42783          	lw	a5,-20(s0)
    1384:	02c7a703          	lw	a4,44(a5)
    1388:	000287b7          	lui	a5,0x28
    138c:	ce478693          	addi	a3,a5,-796 # 27ce4 <pxReadyTasksLists>
    1390:	00070793          	mv	a5,a4
    1394:	00279793          	slli	a5,a5,0x2
    1398:	00e787b3          	add	a5,a5,a4
    139c:	00279793          	slli	a5,a5,0x2
    13a0:	00f687b3          	add	a5,a3,a5
    13a4:	0007a783          	lw	a5,0(a5)
    13a8:	02079663          	bnez	a5,13d4 <vTaskSuspend+0xb4>
    13ac:	fec42783          	lw	a5,-20(s0)
    13b0:	02c7a783          	lw	a5,44(a5)
    13b4:	00100713          	li	a4,1
    13b8:	00f717b3          	sll	a5,a4,a5
    13bc:	fff7c713          	not	a4,a5
    13c0:	000287b7          	lui	a5,0x28
    13c4:	de87a783          	lw	a5,-536(a5) # 27de8 <uxTopReadyPriority>
    13c8:	00f77733          	and	a4,a4,a5
    13cc:	000287b7          	lui	a5,0x28
    13d0:	dee7a423          	sw	a4,-536(a5) # 27de8 <uxTopReadyPriority>
            {
                mtCOVERAGE_TEST_MARKER();
            }

            /* Is the task waiting on an event also? */
            if( listLIST_ITEM_CONTAINER( &( pxTCB->xEventListItem ) ) != NULL )
    13d4:	fec42783          	lw	a5,-20(s0)
    13d8:	0287a783          	lw	a5,40(a5)
    13dc:	00078a63          	beqz	a5,13f0 <vTaskSuspend+0xd0>
            {
                ( void ) uxListRemove( &( pxTCB->xEventListItem ) );
    13e0:	fec42783          	lw	a5,-20(s0)
    13e4:	01878793          	addi	a5,a5,24
    13e8:	00078513          	mv	a0,a5
    13ec:	27c080ef          	jal	ra,9668 <uxListRemove>
            else
            {
                mtCOVERAGE_TEST_MARKER();
            }

            vListInsertEnd( &xSuspendedTaskList, &( pxTCB->xStateListItem ) );
    13f0:	fec42783          	lw	a5,-20(s0)
    13f4:	00478793          	addi	a5,a5,4
    13f8:	00078593          	mv	a1,a5
    13fc:	000287b7          	lui	a5,0x28
    1400:	dcc78513          	addi	a0,a5,-564 # 27dcc <xSuspendedTaskList>
    1404:	108080ef          	jal	ra,950c <vListInsertEnd>

            #if ( configUSE_TASK_NOTIFICATIONS == 1 )
            {
                BaseType_t x;

                for( x = 0; x < configTASK_NOTIFICATION_ARRAY_ENTRIES; x++ )
    1408:	fe042423          	sw	zero,-24(s0)
    140c:	03c0006f          	j	1448 <vTaskSuspend+0x128>
                {
                    if( pxTCB->ucNotifyState[ x ] == taskWAITING_NOTIFICATION )
    1410:	fec42703          	lw	a4,-20(s0)
    1414:	fe842783          	lw	a5,-24(s0)
    1418:	00f707b3          	add	a5,a4,a5
    141c:	5847c783          	lbu	a5,1412(a5)
    1420:	0ff7f713          	zext.b	a4,a5
    1424:	00100793          	li	a5,1
    1428:	00f71a63          	bne	a4,a5,143c <vTaskSuspend+0x11c>
                    {
                        /* The task was blocked to wait for a notification, but is
                         * now suspended, so no notification was received. */
                        pxTCB->ucNotifyState[ x ] = taskNOT_WAITING_NOTIFICATION;
    142c:	fec42703          	lw	a4,-20(s0)
    1430:	fe842783          	lw	a5,-24(s0)
    1434:	00f707b3          	add	a5,a4,a5
    1438:	58078223          	sb	zero,1412(a5)
                for( x = 0; x < configTASK_NOTIFICATION_ARRAY_ENTRIES; x++ )
    143c:	fe842783          	lw	a5,-24(s0)
    1440:	00178793          	addi	a5,a5,1
    1444:	fef42423          	sw	a5,-24(s0)
    1448:	fe842783          	lw	a5,-24(s0)
    144c:	fcf052e3          	blez	a5,1410 <vTaskSuspend+0xf0>
                    }
                }
            }
            #endif /* if ( configUSE_TASK_NOTIFICATIONS == 1 ) */
        }
        taskEXIT_CRITICAL();
    1450:	000267b7          	lui	a5,0x26
    1454:	0147a783          	lw	a5,20(a5) # 26014 <xCriticalNesting>
    1458:	fff78713          	addi	a4,a5,-1
    145c:	000267b7          	lui	a5,0x26
    1460:	00e7aa23          	sw	a4,20(a5) # 26014 <xCriticalNesting>
    1464:	000267b7          	lui	a5,0x26
    1468:	0147a783          	lw	a5,20(a5) # 26014 <xCriticalNesting>
    146c:	00079463          	bnez	a5,1474 <vTaskSuspend+0x154>
    1470:	30046073          	csrsi	mstatus,8

        if( xSchedulerRunning != pdFALSE )
    1474:	000287b7          	lui	a5,0x28
    1478:	dec7a783          	lw	a5,-532(a5) # 27dec <xSchedulerRunning>
    147c:	04078263          	beqz	a5,14c0 <vTaskSuspend+0x1a0>
        {
            /* Reset the next expected unblock time in case it referred to the
             * task that is now in the Suspended state. */
            taskENTER_CRITICAL();
    1480:	30047073          	csrci	mstatus,8
    1484:	000267b7          	lui	a5,0x26
    1488:	0147a783          	lw	a5,20(a5) # 26014 <xCriticalNesting>
    148c:	00178713          	addi	a4,a5,1
    1490:	000267b7          	lui	a5,0x26
    1494:	00e7aa23          	sw	a4,20(a5) # 26014 <xCriticalNesting>
            {
                prvResetNextTaskUnblockTime();
    1498:	6d4020ef          	jal	ra,3b6c <prvResetNextTaskUnblockTime>
            }
            taskEXIT_CRITICAL();
    149c:	000267b7          	lui	a5,0x26
    14a0:	0147a783          	lw	a5,20(a5) # 26014 <xCriticalNesting>
    14a4:	fff78713          	addi	a4,a5,-1
    14a8:	000267b7          	lui	a5,0x26
    14ac:	00e7aa23          	sw	a4,20(a5) # 26014 <xCriticalNesting>
    14b0:	000267b7          	lui	a5,0x26
    14b4:	0147a783          	lw	a5,20(a5) # 26014 <xCriticalNesting>
    14b8:	00079463          	bnez	a5,14c0 <vTaskSuspend+0x1a0>
    14bc:	30046073          	csrsi	mstatus,8
        else
        {
            mtCOVERAGE_TEST_MARKER();
        }

        if( pxTCB == pxCurrentTCB )
    14c0:	000287b7          	lui	a5,0x28
    14c4:	c507a783          	lw	a5,-944(a5) # 27c50 <pxCurrentTCB>
    14c8:	fec42703          	lw	a4,-20(s0)
    14cc:	04f71e63          	bne	a4,a5,1528 <vTaskSuspend+0x208>
        {
            if( xSchedulerRunning != pdFALSE )
    14d0:	000287b7          	lui	a5,0x28
    14d4:	dec7a783          	lw	a5,-532(a5) # 27dec <xSchedulerRunning>
    14d8:	02078463          	beqz	a5,1500 <vTaskSuspend+0x1e0>
            {
                /* The current task has just been suspended. */
                configASSERT( uxSchedulerSuspended == 0 );
    14dc:	000287b7          	lui	a5,0x28
    14e0:	e087a783          	lw	a5,-504(a5) # 27e08 <uxSchedulerSuspended>
    14e4:	00078a63          	beqz	a5,14f8 <vTaskSuspend+0x1d8>
    14e8:	30047073          	csrci	mstatus,8
    14ec:	00100073          	ebreak
    14f0:	00000013          	nop
    14f4:	ffdff06f          	j	14f0 <vTaskSuspend+0x1d0>
                portYIELD_WITHIN_API();
    14f8:	00000073          	ecall
        }
        else
        {
            mtCOVERAGE_TEST_MARKER();
        }
    }
    14fc:	02c0006f          	j	1528 <vTaskSuspend+0x208>
                if( listCURRENT_LIST_LENGTH( &xSuspendedTaskList ) == uxCurrentNumberOfTasks ) /*lint !e931 Right has no side effect, just volatile. */
    1500:	000287b7          	lui	a5,0x28
    1504:	dcc78793          	addi	a5,a5,-564 # 27dcc <xSuspendedTaskList>
    1508:	0007a703          	lw	a4,0(a5)
    150c:	000287b7          	lui	a5,0x28
    1510:	de07a783          	lw	a5,-544(a5) # 27de0 <uxCurrentNumberOfTasks>
    1514:	00f71863          	bne	a4,a5,1524 <vTaskSuspend+0x204>
                    pxCurrentTCB = NULL;
    1518:	000287b7          	lui	a5,0x28
    151c:	c407a823          	sw	zero,-944(a5) # 27c50 <pxCurrentTCB>
    }
    1520:	0080006f          	j	1528 <vTaskSuspend+0x208>
                    vTaskSwitchContext();
    1524:	4f4010ef          	jal	ra,2a18 <vTaskSwitchContext>
    }
    1528:	00000013          	nop
    152c:	02c12083          	lw	ra,44(sp)
    1530:	02812403          	lw	s0,40(sp)
    1534:	03010113          	addi	sp,sp,48
    1538:	00008067          	ret

0000153c <prvTaskIsTaskSuspended>:
/*-----------------------------------------------------------*/

#if ( INCLUDE_vTaskSuspend == 1 )

    static BaseType_t prvTaskIsTaskSuspended( const TaskHandle_t xTask )
    {
    153c:	fd010113          	addi	sp,sp,-48
    1540:	02812623          	sw	s0,44(sp)
    1544:	03010413          	addi	s0,sp,48
    1548:	fca42e23          	sw	a0,-36(s0)
        BaseType_t xReturn = pdFALSE;
    154c:	fe042423          	sw	zero,-24(s0)
        const TCB_t * const pxTCB = xTask;
    1550:	fdc42783          	lw	a5,-36(s0)
    1554:	fef42623          	sw	a5,-20(s0)

        /* Accesses xPendingReadyList so must be called from a critical
         * section. */

        /* It does not make sense to check if the calling task is suspended. */
        configASSERT( xTask );
    1558:	fdc42783          	lw	a5,-36(s0)
    155c:	00079a63          	bnez	a5,1570 <prvTaskIsTaskSuspended+0x34>
    1560:	30047073          	csrci	mstatus,8
    1564:	00100073          	ebreak
    1568:	00000013          	nop
    156c:	ffdff06f          	j	1568 <prvTaskIsTaskSuspended+0x2c>

        /* Is the task being resumed actually in the suspended list? */
        if( listIS_CONTAINED_WITHIN( &xSuspendedTaskList, &( pxTCB->xStateListItem ) ) != pdFALSE )
    1570:	fec42783          	lw	a5,-20(s0)
    1574:	0147a703          	lw	a4,20(a5)
    1578:	000287b7          	lui	a5,0x28
    157c:	dcc78793          	addi	a5,a5,-564 # 27dcc <xSuspendedTaskList>
    1580:	02f71663          	bne	a4,a5,15ac <prvTaskIsTaskSuspended+0x70>
        {
            /* Has the task already been resumed from within an ISR? */
            if( listIS_CONTAINED_WITHIN( &xPendingReadyList, &( pxTCB->xEventListItem ) ) == pdFALSE )
    1584:	fec42783          	lw	a5,-20(s0)
    1588:	0287a703          	lw	a4,40(a5)
    158c:	000287b7          	lui	a5,0x28
    1590:	da078793          	addi	a5,a5,-608 # 27da0 <xPendingReadyList>
    1594:	00f70c63          	beq	a4,a5,15ac <prvTaskIsTaskSuspended+0x70>
            {
                /* Is it in the suspended list because it is in the Suspended
                 * state, or because is is blocked with no timeout? */
                if( listIS_CONTAINED_WITHIN( NULL, &( pxTCB->xEventListItem ) ) != pdFALSE ) /*lint !e961.  The cast is only redundant when NULL is used. */
    1598:	fec42783          	lw	a5,-20(s0)
    159c:	0287a783          	lw	a5,40(a5)
    15a0:	00079663          	bnez	a5,15ac <prvTaskIsTaskSuspended+0x70>
                {
                    xReturn = pdTRUE;
    15a4:	00100793          	li	a5,1
    15a8:	fef42423          	sw	a5,-24(s0)
        else
        {
            mtCOVERAGE_TEST_MARKER();
        }

        return xReturn;
    15ac:	fe842783          	lw	a5,-24(s0)
    } /*lint !e818 xTask cannot be a pointer to const because it is a typedef. */
    15b0:	00078513          	mv	a0,a5
    15b4:	02c12403          	lw	s0,44(sp)
    15b8:	03010113          	addi	sp,sp,48
    15bc:	00008067          	ret

000015c0 <vTaskResume>:
/*-----------------------------------------------------------*/

#if ( INCLUDE_vTaskSuspend == 1 )

    void vTaskResume( TaskHandle_t xTaskToResume )
    {
    15c0:	fd010113          	addi	sp,sp,-48
    15c4:	02112623          	sw	ra,44(sp)
    15c8:	02812423          	sw	s0,40(sp)
    15cc:	03010413          	addi	s0,sp,48
    15d0:	fca42e23          	sw	a0,-36(s0)
        TCB_t * const pxTCB = xTaskToResume;
    15d4:	fdc42783          	lw	a5,-36(s0)
    15d8:	fef42423          	sw	a5,-24(s0)

        /* It does not make sense to resume the calling task. */
        configASSERT( xTaskToResume );
    15dc:	fdc42783          	lw	a5,-36(s0)
    15e0:	00079a63          	bnez	a5,15f4 <vTaskResume+0x34>
    15e4:	30047073          	csrci	mstatus,8
    15e8:	00100073          	ebreak
    15ec:	00000013          	nop
    15f0:	ffdff06f          	j	15ec <vTaskResume+0x2c>

        /* The parameter cannot be NULL as it is impossible to resume the
         * currently executing task. */
        if( ( pxTCB != pxCurrentTCB ) && ( pxTCB != NULL ) )
    15f4:	000287b7          	lui	a5,0x28
    15f8:	c507a783          	lw	a5,-944(a5) # 27c50 <pxCurrentTCB>
    15fc:	fe842703          	lw	a4,-24(s0)
    1600:	18f70663          	beq	a4,a5,178c <vTaskResume+0x1cc>
    1604:	fe842783          	lw	a5,-24(s0)
    1608:	18078263          	beqz	a5,178c <vTaskResume+0x1cc>
        {
            taskENTER_CRITICAL();
    160c:	30047073          	csrci	mstatus,8
    1610:	000267b7          	lui	a5,0x26
    1614:	0147a783          	lw	a5,20(a5) # 26014 <xCriticalNesting>
    1618:	00178713          	addi	a4,a5,1
    161c:	000267b7          	lui	a5,0x26
    1620:	00e7aa23          	sw	a4,20(a5) # 26014 <xCriticalNesting>
            {
                if( prvTaskIsTaskSuspended( pxTCB ) != pdFALSE )
    1624:	fe842503          	lw	a0,-24(s0)
    1628:	f15ff0ef          	jal	ra,153c <prvTaskIsTaskSuspended>
    162c:	00050793          	mv	a5,a0
    1630:	12078c63          	beqz	a5,1768 <vTaskResume+0x1a8>
                {
                    traceTASK_RESUME( pxTCB );

                    /* The ready list can be accessed even if the scheduler is
                     * suspended because this is inside a critical section. */
                    ( void ) uxListRemove( &( pxTCB->xStateListItem ) );
    1634:	fe842783          	lw	a5,-24(s0)
    1638:	00478793          	addi	a5,a5,4
    163c:	00078513          	mv	a0,a5
    1640:	028080ef          	jal	ra,9668 <uxListRemove>
                    prvAddTaskToReadyList( pxTCB );
    1644:	fe842783          	lw	a5,-24(s0)
    1648:	02c7a783          	lw	a5,44(a5)
    164c:	00100713          	li	a4,1
    1650:	00f71733          	sll	a4,a4,a5
    1654:	000287b7          	lui	a5,0x28
    1658:	de87a783          	lw	a5,-536(a5) # 27de8 <uxTopReadyPriority>
    165c:	00f76733          	or	a4,a4,a5
    1660:	000287b7          	lui	a5,0x28
    1664:	dee7a423          	sw	a4,-536(a5) # 27de8 <uxTopReadyPriority>
    1668:	fe842783          	lw	a5,-24(s0)
    166c:	02c7a703          	lw	a4,44(a5)
    1670:	000287b7          	lui	a5,0x28
    1674:	ce478693          	addi	a3,a5,-796 # 27ce4 <pxReadyTasksLists>
    1678:	00070793          	mv	a5,a4
    167c:	00279793          	slli	a5,a5,0x2
    1680:	00e787b3          	add	a5,a5,a4
    1684:	00279793          	slli	a5,a5,0x2
    1688:	00f687b3          	add	a5,a3,a5
    168c:	0047a783          	lw	a5,4(a5)
    1690:	fef42623          	sw	a5,-20(s0)
    1694:	fe842783          	lw	a5,-24(s0)
    1698:	fec42703          	lw	a4,-20(s0)
    169c:	00e7a423          	sw	a4,8(a5)
    16a0:	fec42783          	lw	a5,-20(s0)
    16a4:	0087a703          	lw	a4,8(a5)
    16a8:	fe842783          	lw	a5,-24(s0)
    16ac:	00e7a623          	sw	a4,12(a5)
    16b0:	fec42783          	lw	a5,-20(s0)
    16b4:	0087a783          	lw	a5,8(a5)
    16b8:	fe842703          	lw	a4,-24(s0)
    16bc:	00470713          	addi	a4,a4,4
    16c0:	00e7a223          	sw	a4,4(a5)
    16c4:	fe842783          	lw	a5,-24(s0)
    16c8:	00478713          	addi	a4,a5,4
    16cc:	fec42783          	lw	a5,-20(s0)
    16d0:	00e7a423          	sw	a4,8(a5)
    16d4:	fe842783          	lw	a5,-24(s0)
    16d8:	02c7a703          	lw	a4,44(a5)
    16dc:	00070793          	mv	a5,a4
    16e0:	00279793          	slli	a5,a5,0x2
    16e4:	00e787b3          	add	a5,a5,a4
    16e8:	00279793          	slli	a5,a5,0x2
    16ec:	00028737          	lui	a4,0x28
    16f0:	ce470713          	addi	a4,a4,-796 # 27ce4 <pxReadyTasksLists>
    16f4:	00e78733          	add	a4,a5,a4
    16f8:	fe842783          	lw	a5,-24(s0)
    16fc:	00e7aa23          	sw	a4,20(a5)
    1700:	fe842783          	lw	a5,-24(s0)
    1704:	02c7a703          	lw	a4,44(a5)
    1708:	000287b7          	lui	a5,0x28
    170c:	ce478693          	addi	a3,a5,-796 # 27ce4 <pxReadyTasksLists>
    1710:	00070793          	mv	a5,a4
    1714:	00279793          	slli	a5,a5,0x2
    1718:	00e787b3          	add	a5,a5,a4
    171c:	00279793          	slli	a5,a5,0x2
    1720:	00f687b3          	add	a5,a3,a5
    1724:	0007a783          	lw	a5,0(a5)
    1728:	00178693          	addi	a3,a5,1
    172c:	000287b7          	lui	a5,0x28
    1730:	ce478613          	addi	a2,a5,-796 # 27ce4 <pxReadyTasksLists>
    1734:	00070793          	mv	a5,a4
    1738:	00279793          	slli	a5,a5,0x2
    173c:	00e787b3          	add	a5,a5,a4
    1740:	00279793          	slli	a5,a5,0x2
    1744:	00f607b3          	add	a5,a2,a5
    1748:	00d7a023          	sw	a3,0(a5)

                    /* A higher priority task may have just been resumed. */
                    if( pxTCB->uxPriority >= pxCurrentTCB->uxPriority )
    174c:	fe842783          	lw	a5,-24(s0)
    1750:	02c7a703          	lw	a4,44(a5)
    1754:	000287b7          	lui	a5,0x28
    1758:	c507a783          	lw	a5,-944(a5) # 27c50 <pxCurrentTCB>
    175c:	02c7a783          	lw	a5,44(a5)
    1760:	00f76463          	bltu	a4,a5,1768 <vTaskResume+0x1a8>
                    {
                        /* This yield may not cause the task just resumed to run,
                         * but will leave the lists in the correct state for the
                         * next yield. */
                        taskYIELD_IF_USING_PREEMPTION();
    1764:	00000073          	ecall
                else
                {
                    mtCOVERAGE_TEST_MARKER();
                }
            }
            taskEXIT_CRITICAL();
    1768:	000267b7          	lui	a5,0x26
    176c:	0147a783          	lw	a5,20(a5) # 26014 <xCriticalNesting>
    1770:	fff78713          	addi	a4,a5,-1
    1774:	000267b7          	lui	a5,0x26
    1778:	00e7aa23          	sw	a4,20(a5) # 26014 <xCriticalNesting>
    177c:	000267b7          	lui	a5,0x26
    1780:	0147a783          	lw	a5,20(a5) # 26014 <xCriticalNesting>
    1784:	00079463          	bnez	a5,178c <vTaskResume+0x1cc>
    1788:	30046073          	csrsi	mstatus,8
        }
        else
        {
            mtCOVERAGE_TEST_MARKER();
        }
    }
    178c:	00000013          	nop
    1790:	02c12083          	lw	ra,44(sp)
    1794:	02812403          	lw	s0,40(sp)
    1798:	03010113          	addi	sp,sp,48
    179c:	00008067          	ret

000017a0 <xTaskResumeFromISR>:
/*-----------------------------------------------------------*/

#if ( ( INCLUDE_xTaskResumeFromISR == 1 ) && ( INCLUDE_vTaskSuspend == 1 ) )

    BaseType_t xTaskResumeFromISR( TaskHandle_t xTaskToResume )
    {
    17a0:	fd010113          	addi	sp,sp,-48
    17a4:	02112623          	sw	ra,44(sp)
    17a8:	02812423          	sw	s0,40(sp)
    17ac:	03010413          	addi	s0,sp,48
    17b0:	fca42e23          	sw	a0,-36(s0)
        BaseType_t xYieldRequired = pdFALSE;
    17b4:	fe042023          	sw	zero,-32(s0)
        TCB_t * const pxTCB = xTaskToResume;
    17b8:	fdc42783          	lw	a5,-36(s0)
    17bc:	fef42223          	sw	a5,-28(s0)
        UBaseType_t uxSavedInterruptStatus;

        configASSERT( xTaskToResume );
    17c0:	fdc42783          	lw	a5,-36(s0)
    17c4:	00079a63          	bnez	a5,17d8 <xTaskResumeFromISR+0x38>
    17c8:	30047073          	csrci	mstatus,8
    17cc:	00100073          	ebreak
    17d0:	00000013          	nop
    17d4:	ffdff06f          	j	17d0 <xTaskResumeFromISR+0x30>
         * simple as possible.  More information (albeit Cortex-M specific) is
         * provided on the following link:
         * https://www.FreeRTOS.org/RTOS-Cortex-M3-M4.html */
        portASSERT_IF_INTERRUPT_PRIORITY_INVALID();

        uxSavedInterruptStatus = portSET_INTERRUPT_MASK_FROM_ISR();
    17d8:	fe042423          	sw	zero,-24(s0)
        {
            if( prvTaskIsTaskSuspended( pxTCB ) != pdFALSE )
    17dc:	fe442503          	lw	a0,-28(s0)
    17e0:	d5dff0ef          	jal	ra,153c <prvTaskIsTaskSuspended>
    17e4:	00050793          	mv	a5,a0
    17e8:	16078863          	beqz	a5,1958 <xTaskResumeFromISR+0x1b8>
            {
                traceTASK_RESUME_FROM_ISR( pxTCB );

                /* Check the ready lists can be accessed. */
                if( uxSchedulerSuspended == ( UBaseType_t ) pdFALSE )
    17ec:	000287b7          	lui	a5,0x28
    17f0:	e087a783          	lw	a5,-504(a5) # 27e08 <uxSchedulerSuspended>
    17f4:	14079663          	bnez	a5,1940 <xTaskResumeFromISR+0x1a0>
                {
                    /* Ready lists can be accessed so move the task from the
                     * suspended list to the ready list directly. */
                    if( pxTCB->uxPriority >= pxCurrentTCB->uxPriority )
    17f8:	fe442783          	lw	a5,-28(s0)
    17fc:	02c7a703          	lw	a4,44(a5)
    1800:	000287b7          	lui	a5,0x28
    1804:	c507a783          	lw	a5,-944(a5) # 27c50 <pxCurrentTCB>
    1808:	02c7a783          	lw	a5,44(a5)
    180c:	00f76c63          	bltu	a4,a5,1824 <xTaskResumeFromISR+0x84>
                    {
                        xYieldRequired = pdTRUE;
    1810:	00100793          	li	a5,1
    1814:	fef42023          	sw	a5,-32(s0)

                        /* Mark that a yield is pending in case the user is not
                         * using the return value to initiate a context switch
                         * from the ISR using portYIELD_FROM_ISR. */
                        xYieldPending = pdTRUE;
    1818:	000287b7          	lui	a5,0x28
    181c:	00100713          	li	a4,1
    1820:	dee7aa23          	sw	a4,-524(a5) # 27df4 <xYieldPending>
                    else
                    {
                        mtCOVERAGE_TEST_MARKER();
                    }

                    ( void ) uxListRemove( &( pxTCB->xStateListItem ) );
    1824:	fe442783          	lw	a5,-28(s0)
    1828:	00478793          	addi	a5,a5,4
    182c:	00078513          	mv	a0,a5
    1830:	639070ef          	jal	ra,9668 <uxListRemove>
                    prvAddTaskToReadyList( pxTCB );
    1834:	fe442783          	lw	a5,-28(s0)
    1838:	02c7a783          	lw	a5,44(a5)
    183c:	00100713          	li	a4,1
    1840:	00f71733          	sll	a4,a4,a5
    1844:	000287b7          	lui	a5,0x28
    1848:	de87a783          	lw	a5,-536(a5) # 27de8 <uxTopReadyPriority>
    184c:	00f76733          	or	a4,a4,a5
    1850:	000287b7          	lui	a5,0x28
    1854:	dee7a423          	sw	a4,-536(a5) # 27de8 <uxTopReadyPriority>
    1858:	fe442783          	lw	a5,-28(s0)
    185c:	02c7a703          	lw	a4,44(a5)
    1860:	000287b7          	lui	a5,0x28
    1864:	ce478693          	addi	a3,a5,-796 # 27ce4 <pxReadyTasksLists>
    1868:	00070793          	mv	a5,a4
    186c:	00279793          	slli	a5,a5,0x2
    1870:	00e787b3          	add	a5,a5,a4
    1874:	00279793          	slli	a5,a5,0x2
    1878:	00f687b3          	add	a5,a3,a5
    187c:	0047a783          	lw	a5,4(a5)
    1880:	fef42623          	sw	a5,-20(s0)
    1884:	fe442783          	lw	a5,-28(s0)
    1888:	fec42703          	lw	a4,-20(s0)
    188c:	00e7a423          	sw	a4,8(a5)
    1890:	fec42783          	lw	a5,-20(s0)
    1894:	0087a703          	lw	a4,8(a5)
    1898:	fe442783          	lw	a5,-28(s0)
    189c:	00e7a623          	sw	a4,12(a5)
    18a0:	fec42783          	lw	a5,-20(s0)
    18a4:	0087a783          	lw	a5,8(a5)
    18a8:	fe442703          	lw	a4,-28(s0)
    18ac:	00470713          	addi	a4,a4,4
    18b0:	00e7a223          	sw	a4,4(a5)
    18b4:	fe442783          	lw	a5,-28(s0)
    18b8:	00478713          	addi	a4,a5,4
    18bc:	fec42783          	lw	a5,-20(s0)
    18c0:	00e7a423          	sw	a4,8(a5)
    18c4:	fe442783          	lw	a5,-28(s0)
    18c8:	02c7a703          	lw	a4,44(a5)
    18cc:	00070793          	mv	a5,a4
    18d0:	00279793          	slli	a5,a5,0x2
    18d4:	00e787b3          	add	a5,a5,a4
    18d8:	00279793          	slli	a5,a5,0x2
    18dc:	00028737          	lui	a4,0x28
    18e0:	ce470713          	addi	a4,a4,-796 # 27ce4 <pxReadyTasksLists>
    18e4:	00e78733          	add	a4,a5,a4
    18e8:	fe442783          	lw	a5,-28(s0)
    18ec:	00e7aa23          	sw	a4,20(a5)
    18f0:	fe442783          	lw	a5,-28(s0)
    18f4:	02c7a703          	lw	a4,44(a5)
    18f8:	000287b7          	lui	a5,0x28
    18fc:	ce478693          	addi	a3,a5,-796 # 27ce4 <pxReadyTasksLists>
    1900:	00070793          	mv	a5,a4
    1904:	00279793          	slli	a5,a5,0x2
    1908:	00e787b3          	add	a5,a5,a4
    190c:	00279793          	slli	a5,a5,0x2
    1910:	00f687b3          	add	a5,a3,a5
    1914:	0007a783          	lw	a5,0(a5)
    1918:	00178693          	addi	a3,a5,1
    191c:	000287b7          	lui	a5,0x28
    1920:	ce478613          	addi	a2,a5,-796 # 27ce4 <pxReadyTasksLists>
    1924:	00070793          	mv	a5,a4
    1928:	00279793          	slli	a5,a5,0x2
    192c:	00e787b3          	add	a5,a5,a4
    1930:	00279793          	slli	a5,a5,0x2
    1934:	00f607b3          	add	a5,a2,a5
    1938:	00d7a023          	sw	a3,0(a5)
    193c:	01c0006f          	j	1958 <xTaskResumeFromISR+0x1b8>
                else
                {
                    /* The delayed or ready lists cannot be accessed so the task
                     * is held in the pending ready list until the scheduler is
                     * unsuspended. */
                    vListInsertEnd( &( xPendingReadyList ), &( pxTCB->xEventListItem ) );
    1940:	fe442783          	lw	a5,-28(s0)
    1944:	01878793          	addi	a5,a5,24
    1948:	00078593          	mv	a1,a5
    194c:	000287b7          	lui	a5,0x28
    1950:	da078513          	addi	a0,a5,-608 # 27da0 <xPendingReadyList>
    1954:	3b9070ef          	jal	ra,950c <vListInsertEnd>
                mtCOVERAGE_TEST_MARKER();
            }
        }
        portCLEAR_INTERRUPT_MASK_FROM_ISR( uxSavedInterruptStatus );

        return xYieldRequired;
    1958:	fe042783          	lw	a5,-32(s0)
    }
    195c:	00078513          	mv	a0,a5
    1960:	02c12083          	lw	ra,44(sp)
    1964:	02812403          	lw	s0,40(sp)
    1968:	03010113          	addi	sp,sp,48
    196c:	00008067          	ret

00001970 <vTaskStartScheduler>:

#endif /* ( ( INCLUDE_xTaskResumeFromISR == 1 ) && ( INCLUDE_vTaskSuspend == 1 ) ) */
/*-----------------------------------------------------------*/

void vTaskStartScheduler( void )
{
    1970:	fe010113          	addi	sp,sp,-32
    1974:	00112e23          	sw	ra,28(sp)
    1978:	00812c23          	sw	s0,24(sp)
    197c:	02010413          	addi	s0,sp,32
        }
    }
    #else /* if ( configSUPPORT_STATIC_ALLOCATION == 1 ) */
    {
        /* The Idle task is being created using dynamically allocated RAM. */
        xReturn = xTaskCreate( prvIdleTask,
    1980:	000287b7          	lui	a5,0x28
    1984:	e0478793          	addi	a5,a5,-508 # 27e04 <xIdleTaskHandle>
    1988:	00000713          	li	a4,0
    198c:	00000693          	li	a3,0
    1990:	12c00613          	li	a2,300
    1994:	000235b7          	lui	a1,0x23
    1998:	4a858593          	addi	a1,a1,1192 # 234a8 <__flash_rodata_start+0x58>
    199c:	00003537          	lui	a0,0x3
    19a0:	66c50513          	addi	a0,a0,1644 # 366c <prvIdleTask>
    19a4:	ae1fe0ef          	jal	ra,484 <xTaskCreate>
    19a8:	fea42623          	sw	a0,-20(s0)
    }
    #endif /* configSUPPORT_STATIC_ALLOCATION */

    #if ( configUSE_TIMERS == 1 )
    {
        if( xReturn == pdPASS )
    19ac:	fec42703          	lw	a4,-20(s0)
    19b0:	00100793          	li	a5,1
    19b4:	00f71663          	bne	a4,a5,19c0 <vTaskStartScheduler+0x50>
        {
            xReturn = xTimerCreateTimerTask();
    19b8:	469030ef          	jal	ra,5620 <xTimerCreateTimerTask>
    19bc:	fea42623          	sw	a0,-20(s0)
            mtCOVERAGE_TEST_MARKER();
        }
    }
    #endif /* configUSE_TIMERS */

    if( xReturn == pdPASS )
    19c0:	fec42703          	lw	a4,-20(s0)
    19c4:	00100793          	li	a5,1
    19c8:	04f71c63          	bne	a4,a5,1a20 <vTaskStartScheduler+0xb0>
        /* Interrupts are turned off here, to ensure a tick does not occur
         * before or during the call to xPortStartScheduler().  The stacks of
         * the created tasks contain a status word with interrupts switched on
         * so interrupts will automatically get re-enabled when the first task
         * starts to run. */
        portDISABLE_INTERRUPTS();
    19cc:	30047073          	csrci	mstatus,8

        #if ( ( configUSE_NEWLIB_REENTRANT == 1 ) || ( configUSE_C_RUNTIME_TLS_SUPPORT == 1 ) )
        {
            /* Switch C-Runtime's TLS Block to point to the TLS
             * block specific to the task that will run first. */
            configSET_TLS_BLOCK( pxCurrentTCB->xTLSBlock );
    19d0:	000287b7          	lui	a5,0x28
    19d4:	c507a783          	lw	a5,-944(a5) # 27c50 <pxCurrentTCB>
    19d8:	05878793          	addi	a5,a5,88
    19dc:	00078513          	mv	a0,a5
    19e0:	7d5040ef          	jal	ra,69b4 <alt_set_thread_pointer>
    19e4:	000287b7          	lui	a5,0x28
    19e8:	c507a783          	lw	a5,-944(a5) # 27c50 <pxCurrentTCB>
    19ec:	15878713          	addi	a4,a5,344
    19f0:	000267b7          	lui	a5,0x26
    19f4:	02e7ae23          	sw	a4,60(a5) # 2603c <_impure_ptr>
        }
        #endif

        xNextTaskUnblockTime = portMAX_DELAY;
    19f8:	000287b7          	lui	a5,0x28
    19fc:	fff00713          	li	a4,-1
    1a00:	e0e7a023          	sw	a4,-512(a5) # 27e00 <xNextTaskUnblockTime>
        xSchedulerRunning = pdTRUE;
    1a04:	000287b7          	lui	a5,0x28
    1a08:	00100713          	li	a4,1
    1a0c:	dee7a623          	sw	a4,-532(a5) # 27dec <xSchedulerRunning>
        xTickCount = ( TickType_t ) configINITIAL_TICK_COUNT;
    1a10:	000287b7          	lui	a5,0x28
    1a14:	de07a223          	sw	zero,-540(a5) # 27de4 <xTickCount>

        traceTASK_SWITCHED_IN();

        /* Setting up the timer tick is hardware specific and thus in the
         * portable interface. */
        xPortStartScheduler();
    1a18:	669070ef          	jal	ra,9880 <xPortStartScheduler>
    1a1c:	0200006f          	j	1a3c <vTaskStartScheduler+0xcc>
    else
    {
        /* This line will only be reached if the kernel could not be started,
         * because there was not enough FreeRTOS heap to create the idle task
         * or the timer task. */
        configASSERT( xReturn != errCOULD_NOT_ALLOCATE_REQUIRED_MEMORY );
    1a20:	fec42703          	lw	a4,-20(s0)
    1a24:	fff00793          	li	a5,-1
    1a28:	00f71a63          	bne	a4,a5,1a3c <vTaskStartScheduler+0xcc>
    1a2c:	30047073          	csrci	mstatus,8
    1a30:	00100073          	ebreak
    1a34:	00000013          	nop
    1a38:	ffdff06f          	j	1a34 <vTaskStartScheduler+0xc4>
     * meaning xIdleTaskHandle is not used anywhere else. */
    ( void ) xIdleTaskHandle;

    /* OpenOCD makes use of uxTopUsedPriority for thread debugging. Prevent uxTopUsedPriority
     * from getting optimized out as it is no longer used by the kernel. */
    ( void ) uxTopUsedPriority;
    1a3c:	000267b7          	lui	a5,0x26
    1a40:	0047a783          	lw	a5,4(a5) # 26004 <uxTopUsedPriority>
}
    1a44:	00000013          	nop
    1a48:	01c12083          	lw	ra,28(sp)
    1a4c:	01812403          	lw	s0,24(sp)
    1a50:	02010113          	addi	sp,sp,32
    1a54:	00008067          	ret

00001a58 <vTaskEndScheduler>:
/*-----------------------------------------------------------*/

void vTaskEndScheduler( void )
{
    1a58:	ff010113          	addi	sp,sp,-16
    1a5c:	00112623          	sw	ra,12(sp)
    1a60:	00812423          	sw	s0,8(sp)
    1a64:	01010413          	addi	s0,sp,16
    /* Stop the scheduler interrupts and call the portable scheduler end
     * routine so the original ISRs can be restored if necessary.  The port
     * layer must ensure interrupts enable  bit is left in the correct state. */
    portDISABLE_INTERRUPTS();
    1a68:	30047073          	csrci	mstatus,8
    xSchedulerRunning = pdFALSE;
    1a6c:	000287b7          	lui	a5,0x28
    1a70:	de07a623          	sw	zero,-532(a5) # 27dec <xSchedulerRunning>
    vPortEndScheduler();
    1a74:	669070ef          	jal	ra,98dc <vPortEndScheduler>
}
    1a78:	00000013          	nop
    1a7c:	00c12083          	lw	ra,12(sp)
    1a80:	00812403          	lw	s0,8(sp)
    1a84:	01010113          	addi	sp,sp,16
    1a88:	00008067          	ret

00001a8c <vTaskSuspendAll>:
/*----------------------------------------------------------*/

void vTaskSuspendAll( void )
{
    1a8c:	ff010113          	addi	sp,sp,-16
    1a90:	00812623          	sw	s0,12(sp)
    1a94:	01010413          	addi	s0,sp,16
     * do not otherwise exhibit real time behaviour. */
    portSOFTWARE_BARRIER();

    /* The scheduler is suspended if uxSchedulerSuspended is non-zero.  An increment
     * is used to allow calls to vTaskSuspendAll() to nest. */
    ++uxSchedulerSuspended;
    1a98:	000287b7          	lui	a5,0x28
    1a9c:	e087a783          	lw	a5,-504(a5) # 27e08 <uxSchedulerSuspended>
    1aa0:	00178713          	addi	a4,a5,1
    1aa4:	000287b7          	lui	a5,0x28
    1aa8:	e0e7a423          	sw	a4,-504(a5) # 27e08 <uxSchedulerSuspended>

    /* Enforces ordering for ports and optimised compilers that may otherwise place
     * the above increment elsewhere. */
    portMEMORY_BARRIER();
}
    1aac:	00000013          	nop
    1ab0:	00c12403          	lw	s0,12(sp)
    1ab4:	01010113          	addi	sp,sp,16
    1ab8:	00008067          	ret

00001abc <xTaskResumeAll>:

#endif /* configUSE_TICKLESS_IDLE */
/*----------------------------------------------------------*/

BaseType_t xTaskResumeAll( void )
{
    1abc:	fd010113          	addi	sp,sp,-48
    1ac0:	02112623          	sw	ra,44(sp)
    1ac4:	02812423          	sw	s0,40(sp)
    1ac8:	03010413          	addi	s0,sp,48
    TCB_t * pxTCB = NULL;
    1acc:	fc042c23          	sw	zero,-40(s0)
    BaseType_t xAlreadyYielded = pdFALSE;
    1ad0:	fc042e23          	sw	zero,-36(s0)

    /* If uxSchedulerSuspended is zero then this function does not match a
     * previous call to vTaskSuspendAll(). */
    configASSERT( uxSchedulerSuspended );
    1ad4:	000287b7          	lui	a5,0x28
    1ad8:	e087a783          	lw	a5,-504(a5) # 27e08 <uxSchedulerSuspended>
    1adc:	00079a63          	bnez	a5,1af0 <xTaskResumeAll+0x34>
    1ae0:	30047073          	csrci	mstatus,8
    1ae4:	00100073          	ebreak
    1ae8:	00000013          	nop
    1aec:	ffdff06f          	j	1ae8 <xTaskResumeAll+0x2c>
    /* It is possible that an ISR caused a task to be removed from an event
     * list while the scheduler was suspended.  If this was the case then the
     * removed task will have been added to the xPendingReadyList.  Once the
     * scheduler has been resumed it is safe to move all the pending ready
     * tasks from this list into their appropriate ready list. */
    taskENTER_CRITICAL();
    1af0:	30047073          	csrci	mstatus,8
    1af4:	000267b7          	lui	a5,0x26
    1af8:	0147a783          	lw	a5,20(a5) # 26014 <xCriticalNesting>
    1afc:	00178713          	addi	a4,a5,1
    1b00:	000267b7          	lui	a5,0x26
    1b04:	00e7aa23          	sw	a4,20(a5) # 26014 <xCriticalNesting>
    {
        --uxSchedulerSuspended;
    1b08:	000287b7          	lui	a5,0x28
    1b0c:	e087a783          	lw	a5,-504(a5) # 27e08 <uxSchedulerSuspended>
    1b10:	fff78713          	addi	a4,a5,-1
    1b14:	000287b7          	lui	a5,0x28
    1b18:	e0e7a423          	sw	a4,-504(a5) # 27e08 <uxSchedulerSuspended>

        if( uxSchedulerSuspended == ( UBaseType_t ) pdFALSE )
    1b1c:	000287b7          	lui	a5,0x28
    1b20:	e087a783          	lw	a5,-504(a5) # 27e08 <uxSchedulerSuspended>
    1b24:	2a079c63          	bnez	a5,1ddc <xTaskResumeAll+0x320>
        {
            if( uxCurrentNumberOfTasks > ( UBaseType_t ) 0U )
    1b28:	000287b7          	lui	a5,0x28
    1b2c:	de07a783          	lw	a5,-544(a5) # 27de0 <uxCurrentNumberOfTasks>
    1b30:	2a078663          	beqz	a5,1ddc <xTaskResumeAll+0x320>
            {
                /* Move any readied tasks from the pending list into the
                 * appropriate ready list. */
                while( listLIST_IS_EMPTY( &xPendingReadyList ) == pdFALSE )
    1b34:	22c0006f          	j	1d60 <xTaskResumeAll+0x2a4>
                {
                    pxTCB = listGET_OWNER_OF_HEAD_ENTRY( ( &xPendingReadyList ) ); /*lint !e9079 void * is used as this macro is used with timers and co-routines too.  Alignment is known to be fine as the type of the pointer stored and retrieved is the same. */
    1b38:	000287b7          	lui	a5,0x28
    1b3c:	da078793          	addi	a5,a5,-608 # 27da0 <xPendingReadyList>
    1b40:	00c7a783          	lw	a5,12(a5)
    1b44:	00c7a783          	lw	a5,12(a5)
    1b48:	fcf42c23          	sw	a5,-40(s0)
                    listREMOVE_ITEM( &( pxTCB->xEventListItem ) );
    1b4c:	fd842783          	lw	a5,-40(s0)
    1b50:	0287a783          	lw	a5,40(a5)
    1b54:	fef42223          	sw	a5,-28(s0)
    1b58:	fd842783          	lw	a5,-40(s0)
    1b5c:	01c7a783          	lw	a5,28(a5)
    1b60:	fd842703          	lw	a4,-40(s0)
    1b64:	02072703          	lw	a4,32(a4)
    1b68:	00e7a423          	sw	a4,8(a5)
    1b6c:	fd842783          	lw	a5,-40(s0)
    1b70:	0207a783          	lw	a5,32(a5)
    1b74:	fd842703          	lw	a4,-40(s0)
    1b78:	01c72703          	lw	a4,28(a4)
    1b7c:	00e7a223          	sw	a4,4(a5)
    1b80:	fe442783          	lw	a5,-28(s0)
    1b84:	0047a703          	lw	a4,4(a5)
    1b88:	fd842783          	lw	a5,-40(s0)
    1b8c:	01878793          	addi	a5,a5,24
    1b90:	00f71a63          	bne	a4,a5,1ba4 <xTaskResumeAll+0xe8>
    1b94:	fd842783          	lw	a5,-40(s0)
    1b98:	0207a703          	lw	a4,32(a5)
    1b9c:	fe442783          	lw	a5,-28(s0)
    1ba0:	00e7a223          	sw	a4,4(a5)
    1ba4:	fd842783          	lw	a5,-40(s0)
    1ba8:	0207a423          	sw	zero,40(a5)
    1bac:	fe442783          	lw	a5,-28(s0)
    1bb0:	0007a783          	lw	a5,0(a5)
    1bb4:	fff78713          	addi	a4,a5,-1
    1bb8:	fe442783          	lw	a5,-28(s0)
    1bbc:	00e7a023          	sw	a4,0(a5)
                    portMEMORY_BARRIER();
                    listREMOVE_ITEM( &( pxTCB->xStateListItem ) );
    1bc0:	fd842783          	lw	a5,-40(s0)
    1bc4:	0147a783          	lw	a5,20(a5)
    1bc8:	fef42423          	sw	a5,-24(s0)
    1bcc:	fd842783          	lw	a5,-40(s0)
    1bd0:	0087a783          	lw	a5,8(a5)
    1bd4:	fd842703          	lw	a4,-40(s0)
    1bd8:	00c72703          	lw	a4,12(a4)
    1bdc:	00e7a423          	sw	a4,8(a5)
    1be0:	fd842783          	lw	a5,-40(s0)
    1be4:	00c7a783          	lw	a5,12(a5)
    1be8:	fd842703          	lw	a4,-40(s0)
    1bec:	00872703          	lw	a4,8(a4)
    1bf0:	00e7a223          	sw	a4,4(a5)
    1bf4:	fe842783          	lw	a5,-24(s0)
    1bf8:	0047a703          	lw	a4,4(a5)
    1bfc:	fd842783          	lw	a5,-40(s0)
    1c00:	00478793          	addi	a5,a5,4
    1c04:	00f71a63          	bne	a4,a5,1c18 <xTaskResumeAll+0x15c>
    1c08:	fd842783          	lw	a5,-40(s0)
    1c0c:	00c7a703          	lw	a4,12(a5)
    1c10:	fe842783          	lw	a5,-24(s0)
    1c14:	00e7a223          	sw	a4,4(a5)
    1c18:	fd842783          	lw	a5,-40(s0)
    1c1c:	0007aa23          	sw	zero,20(a5)
    1c20:	fe842783          	lw	a5,-24(s0)
    1c24:	0007a783          	lw	a5,0(a5)
    1c28:	fff78713          	addi	a4,a5,-1
    1c2c:	fe842783          	lw	a5,-24(s0)
    1c30:	00e7a023          	sw	a4,0(a5)
                    prvAddTaskToReadyList( pxTCB );
    1c34:	fd842783          	lw	a5,-40(s0)
    1c38:	02c7a783          	lw	a5,44(a5)
    1c3c:	00100713          	li	a4,1
    1c40:	00f71733          	sll	a4,a4,a5
    1c44:	000287b7          	lui	a5,0x28
    1c48:	de87a783          	lw	a5,-536(a5) # 27de8 <uxTopReadyPriority>
    1c4c:	00f76733          	or	a4,a4,a5
    1c50:	000287b7          	lui	a5,0x28
    1c54:	dee7a423          	sw	a4,-536(a5) # 27de8 <uxTopReadyPriority>
    1c58:	fd842783          	lw	a5,-40(s0)
    1c5c:	02c7a703          	lw	a4,44(a5)
    1c60:	000287b7          	lui	a5,0x28
    1c64:	ce478693          	addi	a3,a5,-796 # 27ce4 <pxReadyTasksLists>
    1c68:	00070793          	mv	a5,a4
    1c6c:	00279793          	slli	a5,a5,0x2
    1c70:	00e787b3          	add	a5,a5,a4
    1c74:	00279793          	slli	a5,a5,0x2
    1c78:	00f687b3          	add	a5,a3,a5
    1c7c:	0047a783          	lw	a5,4(a5)
    1c80:	fef42623          	sw	a5,-20(s0)
    1c84:	fd842783          	lw	a5,-40(s0)
    1c88:	fec42703          	lw	a4,-20(s0)
    1c8c:	00e7a423          	sw	a4,8(a5)
    1c90:	fec42783          	lw	a5,-20(s0)
    1c94:	0087a703          	lw	a4,8(a5)
    1c98:	fd842783          	lw	a5,-40(s0)
    1c9c:	00e7a623          	sw	a4,12(a5)
    1ca0:	fec42783          	lw	a5,-20(s0)
    1ca4:	0087a783          	lw	a5,8(a5)
    1ca8:	fd842703          	lw	a4,-40(s0)
    1cac:	00470713          	addi	a4,a4,4
    1cb0:	00e7a223          	sw	a4,4(a5)
    1cb4:	fd842783          	lw	a5,-40(s0)
    1cb8:	00478713          	addi	a4,a5,4
    1cbc:	fec42783          	lw	a5,-20(s0)
    1cc0:	00e7a423          	sw	a4,8(a5)
    1cc4:	fd842783          	lw	a5,-40(s0)
    1cc8:	02c7a703          	lw	a4,44(a5)
    1ccc:	00070793          	mv	a5,a4
    1cd0:	00279793          	slli	a5,a5,0x2
    1cd4:	00e787b3          	add	a5,a5,a4
    1cd8:	00279793          	slli	a5,a5,0x2
    1cdc:	00028737          	lui	a4,0x28
    1ce0:	ce470713          	addi	a4,a4,-796 # 27ce4 <pxReadyTasksLists>
    1ce4:	00e78733          	add	a4,a5,a4
    1ce8:	fd842783          	lw	a5,-40(s0)
    1cec:	00e7aa23          	sw	a4,20(a5)
    1cf0:	fd842783          	lw	a5,-40(s0)
    1cf4:	02c7a703          	lw	a4,44(a5)
    1cf8:	000287b7          	lui	a5,0x28
    1cfc:	ce478693          	addi	a3,a5,-796 # 27ce4 <pxReadyTasksLists>
    1d00:	00070793          	mv	a5,a4
    1d04:	00279793          	slli	a5,a5,0x2
    1d08:	00e787b3          	add	a5,a5,a4
    1d0c:	00279793          	slli	a5,a5,0x2
    1d10:	00f687b3          	add	a5,a3,a5
    1d14:	0007a783          	lw	a5,0(a5)
    1d18:	00178693          	addi	a3,a5,1
    1d1c:	000287b7          	lui	a5,0x28
    1d20:	ce478613          	addi	a2,a5,-796 # 27ce4 <pxReadyTasksLists>
    1d24:	00070793          	mv	a5,a4
    1d28:	00279793          	slli	a5,a5,0x2
    1d2c:	00e787b3          	add	a5,a5,a4
    1d30:	00279793          	slli	a5,a5,0x2
    1d34:	00f607b3          	add	a5,a2,a5
    1d38:	00d7a023          	sw	a3,0(a5)

                    /* If the moved task has a priority higher than or equal to
                     * the current task then a yield must be performed. */
                    if( pxTCB->uxPriority >= pxCurrentTCB->uxPriority )
    1d3c:	fd842783          	lw	a5,-40(s0)
    1d40:	02c7a703          	lw	a4,44(a5)
    1d44:	000287b7          	lui	a5,0x28
    1d48:	c507a783          	lw	a5,-944(a5) # 27c50 <pxCurrentTCB>
    1d4c:	02c7a783          	lw	a5,44(a5)
    1d50:	00f76863          	bltu	a4,a5,1d60 <xTaskResumeAll+0x2a4>
                    {
                        xYieldPending = pdTRUE;
    1d54:	000287b7          	lui	a5,0x28
    1d58:	00100713          	li	a4,1
    1d5c:	dee7aa23          	sw	a4,-524(a5) # 27df4 <xYieldPending>
                while( listLIST_IS_EMPTY( &xPendingReadyList ) == pdFALSE )
    1d60:	000287b7          	lui	a5,0x28
    1d64:	da078793          	addi	a5,a5,-608 # 27da0 <xPendingReadyList>
    1d68:	0007a783          	lw	a5,0(a5)
    1d6c:	dc0796e3          	bnez	a5,1b38 <xTaskResumeAll+0x7c>
                    {
                        mtCOVERAGE_TEST_MARKER();
                    }
                }

                if( pxTCB != NULL )
    1d70:	fd842783          	lw	a5,-40(s0)
    1d74:	00078463          	beqz	a5,1d7c <xTaskResumeAll+0x2c0>
                     * which may have prevented the next unblock time from being
                     * re-calculated, in which case re-calculate it now.  Mainly
                     * important for low power tickless implementations, where
                     * this can prevent an unnecessary exit from low power
                     * state. */
                    prvResetNextTaskUnblockTime();
    1d78:	5f5010ef          	jal	ra,3b6c <prvResetNextTaskUnblockTime>
                /* If any ticks occurred while the scheduler was suspended then
                 * they should be processed now.  This ensures the tick count does
                 * not  slip, and that any delayed tasks are resumed at the correct
                 * time. */
                {
                    TickType_t xPendedCounts = xPendedTicks; /* Non-volatile copy. */
    1d7c:	000287b7          	lui	a5,0x28
    1d80:	df07a783          	lw	a5,-528(a5) # 27df0 <xPendedTicks>
    1d84:	fef42023          	sw	a5,-32(s0)

                    if( xPendedCounts > ( TickType_t ) 0U )
    1d88:	fe042783          	lw	a5,-32(s0)
    1d8c:	02078c63          	beqz	a5,1dc4 <xTaskResumeAll+0x308>
                    {
                        do
                        {
                            if( xTaskIncrementTick() != pdFALSE )
    1d90:	0c5000ef          	jal	ra,2654 <xTaskIncrementTick>
    1d94:	00050793          	mv	a5,a0
    1d98:	00078863          	beqz	a5,1da8 <xTaskResumeAll+0x2ec>
                            {
                                xYieldPending = pdTRUE;
    1d9c:	000287b7          	lui	a5,0x28
    1da0:	00100713          	li	a4,1
    1da4:	dee7aa23          	sw	a4,-524(a5) # 27df4 <xYieldPending>
                            else
                            {
                                mtCOVERAGE_TEST_MARKER();
                            }

                            --xPendedCounts;
    1da8:	fe042783          	lw	a5,-32(s0)
    1dac:	fff78793          	addi	a5,a5,-1
    1db0:	fef42023          	sw	a5,-32(s0)
                        } while( xPendedCounts > ( TickType_t ) 0U );
    1db4:	fe042783          	lw	a5,-32(s0)
    1db8:	fc079ce3          	bnez	a5,1d90 <xTaskResumeAll+0x2d4>

                        xPendedTicks = 0;
    1dbc:	000287b7          	lui	a5,0x28
    1dc0:	de07a823          	sw	zero,-528(a5) # 27df0 <xPendedTicks>
                    {
                        mtCOVERAGE_TEST_MARKER();
                    }
                }

                if( xYieldPending != pdFALSE )
    1dc4:	000287b7          	lui	a5,0x28
    1dc8:	df47a783          	lw	a5,-524(a5) # 27df4 <xYieldPending>
    1dcc:	00078863          	beqz	a5,1ddc <xTaskResumeAll+0x320>
                {
                    #if ( configUSE_PREEMPTION != 0 )
                    {
                        xAlreadyYielded = pdTRUE;
    1dd0:	00100793          	li	a5,1
    1dd4:	fcf42e23          	sw	a5,-36(s0)
                    }
                    #endif
                    taskYIELD_IF_USING_PREEMPTION();
    1dd8:	00000073          	ecall
        else
        {
            mtCOVERAGE_TEST_MARKER();
        }
    }
    taskEXIT_CRITICAL();
    1ddc:	000267b7          	lui	a5,0x26
    1de0:	0147a783          	lw	a5,20(a5) # 26014 <xCriticalNesting>
    1de4:	fff78713          	addi	a4,a5,-1
    1de8:	000267b7          	lui	a5,0x26
    1dec:	00e7aa23          	sw	a4,20(a5) # 26014 <xCriticalNesting>
    1df0:	000267b7          	lui	a5,0x26
    1df4:	0147a783          	lw	a5,20(a5) # 26014 <xCriticalNesting>
    1df8:	00079463          	bnez	a5,1e00 <xTaskResumeAll+0x344>
    1dfc:	30046073          	csrsi	mstatus,8

    return xAlreadyYielded;
    1e00:	fdc42783          	lw	a5,-36(s0)
}
    1e04:	00078513          	mv	a0,a5
    1e08:	02c12083          	lw	ra,44(sp)
    1e0c:	02812403          	lw	s0,40(sp)
    1e10:	03010113          	addi	sp,sp,48
    1e14:	00008067          	ret

00001e18 <xTaskGetTickCount>:
/*-----------------------------------------------------------*/

TickType_t xTaskGetTickCount( void )
{
    1e18:	fe010113          	addi	sp,sp,-32
    1e1c:	00812e23          	sw	s0,28(sp)
    1e20:	02010413          	addi	s0,sp,32
    TickType_t xTicks;

    /* Critical section required if running on a 16 bit processor. */
    portTICK_TYPE_ENTER_CRITICAL();
    {
        xTicks = xTickCount;
    1e24:	000287b7          	lui	a5,0x28
    1e28:	de47a783          	lw	a5,-540(a5) # 27de4 <xTickCount>
    1e2c:	fef42623          	sw	a5,-20(s0)
    }
    portTICK_TYPE_EXIT_CRITICAL();

    return xTicks;
    1e30:	fec42783          	lw	a5,-20(s0)
}
    1e34:	00078513          	mv	a0,a5
    1e38:	01c12403          	lw	s0,28(sp)
    1e3c:	02010113          	addi	sp,sp,32
    1e40:	00008067          	ret

00001e44 <xTaskGetTickCountFromISR>:
/*-----------------------------------------------------------*/

TickType_t xTaskGetTickCountFromISR( void )
{
    1e44:	fe010113          	addi	sp,sp,-32
    1e48:	00812e23          	sw	s0,28(sp)
    1e4c:	02010413          	addi	s0,sp,32
     * safe API to ensure interrupt entry is as fast and as simple as possible.
     * More information (albeit Cortex-M specific) is provided on the following
     * link: https://www.FreeRTOS.org/RTOS-Cortex-M3-M4.html */
    portASSERT_IF_INTERRUPT_PRIORITY_INVALID();

    uxSavedInterruptStatus = portTICK_TYPE_SET_INTERRUPT_MASK_FROM_ISR();
    1e50:	fe042423          	sw	zero,-24(s0)
    {
        xReturn = xTickCount;
    1e54:	000287b7          	lui	a5,0x28
    1e58:	de47a783          	lw	a5,-540(a5) # 27de4 <xTickCount>
    1e5c:	fef42623          	sw	a5,-20(s0)
    }
    portTICK_TYPE_CLEAR_INTERRUPT_MASK_FROM_ISR( uxSavedInterruptStatus );

    return xReturn;
    1e60:	fec42783          	lw	a5,-20(s0)
}
    1e64:	00078513          	mv	a0,a5
    1e68:	01c12403          	lw	s0,28(sp)
    1e6c:	02010113          	addi	sp,sp,32
    1e70:	00008067          	ret

00001e74 <uxTaskGetNumberOfTasks>:
/*-----------------------------------------------------------*/

UBaseType_t uxTaskGetNumberOfTasks( void )
{
    1e74:	ff010113          	addi	sp,sp,-16
    1e78:	00812623          	sw	s0,12(sp)
    1e7c:	01010413          	addi	s0,sp,16
    /* A critical section is not required because the variables are of type
     * BaseType_t. */
    return uxCurrentNumberOfTasks;
    1e80:	000287b7          	lui	a5,0x28
    1e84:	de07a783          	lw	a5,-544(a5) # 27de0 <uxCurrentNumberOfTasks>
}
    1e88:	00078513          	mv	a0,a5
    1e8c:	00c12403          	lw	s0,12(sp)
    1e90:	01010113          	addi	sp,sp,16
    1e94:	00008067          	ret

00001e98 <pcTaskGetName>:
/*-----------------------------------------------------------*/

char * pcTaskGetName( TaskHandle_t xTaskToQuery ) /*lint !e971 Unqualified char types are allowed for strings and single characters only. */
{
    1e98:	fd010113          	addi	sp,sp,-48
    1e9c:	02812623          	sw	s0,44(sp)
    1ea0:	03010413          	addi	s0,sp,48
    1ea4:	fca42e23          	sw	a0,-36(s0)
    TCB_t * pxTCB;

    /* If null is passed in here then the name of the calling task is being
     * queried. */
    pxTCB = prvGetTCBFromHandle( xTaskToQuery );
    1ea8:	fdc42783          	lw	a5,-36(s0)
    1eac:	00079863          	bnez	a5,1ebc <pcTaskGetName+0x24>
    1eb0:	000287b7          	lui	a5,0x28
    1eb4:	c507a783          	lw	a5,-944(a5) # 27c50 <pxCurrentTCB>
    1eb8:	0080006f          	j	1ec0 <pcTaskGetName+0x28>
    1ebc:	fdc42783          	lw	a5,-36(s0)
    1ec0:	fef42623          	sw	a5,-20(s0)
    configASSERT( pxTCB );
    1ec4:	fec42783          	lw	a5,-20(s0)
    1ec8:	00079a63          	bnez	a5,1edc <pcTaskGetName+0x44>
    1ecc:	30047073          	csrci	mstatus,8
    1ed0:	00100073          	ebreak
    1ed4:	00000013          	nop
    1ed8:	ffdff06f          	j	1ed4 <pcTaskGetName+0x3c>
    return &( pxTCB->pcTaskName[ 0 ] );
    1edc:	fec42783          	lw	a5,-20(s0)
    1ee0:	03478793          	addi	a5,a5,52
}
    1ee4:	00078513          	mv	a0,a5
    1ee8:	02c12403          	lw	s0,44(sp)
    1eec:	03010113          	addi	sp,sp,48
    1ef0:	00008067          	ret

00001ef4 <prvSearchForNameWithinSingleList>:

#if ( INCLUDE_xTaskGetHandle == 1 )

    static TCB_t * prvSearchForNameWithinSingleList( List_t * pxList,
                                                     const char pcNameToQuery[] )
    {
    1ef4:	fc010113          	addi	sp,sp,-64
    1ef8:	02812e23          	sw	s0,60(sp)
    1efc:	04010413          	addi	s0,sp,64
    1f00:	fca42623          	sw	a0,-52(s0)
    1f04:	fcb42423          	sw	a1,-56(s0)
        TCB_t * pxNextTCB, * pxFirstTCB, * pxReturn = NULL;
    1f08:	fc042a23          	sw	zero,-44(s0)
        char cNextChar;
        BaseType_t xBreakLoop;

        /* This function is called with the scheduler suspended. */

        if( listCURRENT_LIST_LENGTH( pxList ) > ( UBaseType_t ) 0 )
    1f0c:	fcc42783          	lw	a5,-52(s0)
    1f10:	0007a783          	lw	a5,0(a5)
    1f14:	14078663          	beqz	a5,2060 <prvSearchForNameWithinSingleList+0x16c>
        {
            listGET_OWNER_OF_NEXT_ENTRY( pxFirstTCB, pxList ); /*lint !e9079 void * is used as this macro is used with timers and co-routines too.  Alignment is known to be fine as the type of the pointer stored and retrieved is the same. */
    1f18:	fcc42783          	lw	a5,-52(s0)
    1f1c:	fef42023          	sw	a5,-32(s0)
    1f20:	fe042783          	lw	a5,-32(s0)
    1f24:	0047a783          	lw	a5,4(a5)
    1f28:	0047a703          	lw	a4,4(a5)
    1f2c:	fe042783          	lw	a5,-32(s0)
    1f30:	00e7a223          	sw	a4,4(a5)
    1f34:	fe042783          	lw	a5,-32(s0)
    1f38:	0047a703          	lw	a4,4(a5)
    1f3c:	fe042783          	lw	a5,-32(s0)
    1f40:	00878793          	addi	a5,a5,8
    1f44:	00f71c63          	bne	a4,a5,1f5c <prvSearchForNameWithinSingleList+0x68>
    1f48:	fe042783          	lw	a5,-32(s0)
    1f4c:	0047a783          	lw	a5,4(a5)
    1f50:	0047a703          	lw	a4,4(a5)
    1f54:	fe042783          	lw	a5,-32(s0)
    1f58:	00e7a223          	sw	a4,4(a5)
    1f5c:	fe042783          	lw	a5,-32(s0)
    1f60:	0047a783          	lw	a5,4(a5)
    1f64:	00c7a783          	lw	a5,12(a5)
    1f68:	fef42223          	sw	a5,-28(s0)

            do
            {
                listGET_OWNER_OF_NEXT_ENTRY( pxNextTCB, pxList ); /*lint !e9079 void * is used as this macro is used with timers and co-routines too.  Alignment is known to be fine as the type of the pointer stored and retrieved is the same. */
    1f6c:	fcc42783          	lw	a5,-52(s0)
    1f70:	fef42423          	sw	a5,-24(s0)
    1f74:	fe842783          	lw	a5,-24(s0)
    1f78:	0047a783          	lw	a5,4(a5)
    1f7c:	0047a703          	lw	a4,4(a5)
    1f80:	fe842783          	lw	a5,-24(s0)
    1f84:	00e7a223          	sw	a4,4(a5)
    1f88:	fe842783          	lw	a5,-24(s0)
    1f8c:	0047a703          	lw	a4,4(a5)
    1f90:	fe842783          	lw	a5,-24(s0)
    1f94:	00878793          	addi	a5,a5,8
    1f98:	00f71c63          	bne	a4,a5,1fb0 <prvSearchForNameWithinSingleList+0xbc>
    1f9c:	fe842783          	lw	a5,-24(s0)
    1fa0:	0047a783          	lw	a5,4(a5)
    1fa4:	0047a703          	lw	a4,4(a5)
    1fa8:	fe842783          	lw	a5,-24(s0)
    1fac:	00e7a223          	sw	a4,4(a5)
    1fb0:	fe842783          	lw	a5,-24(s0)
    1fb4:	0047a783          	lw	a5,4(a5)
    1fb8:	00c7a783          	lw	a5,12(a5)
    1fbc:	fef42623          	sw	a5,-20(s0)

                /* Check each character in the name looking for a match or
                 * mismatch. */
                xBreakLoop = pdFALSE;
    1fc0:	fc042e23          	sw	zero,-36(s0)

                for( x = ( UBaseType_t ) 0; x < ( UBaseType_t ) configMAX_TASK_NAME_LEN; x++ )
    1fc4:	fc042c23          	sw	zero,-40(s0)
    1fc8:	0680006f          	j	2030 <prvSearchForNameWithinSingleList+0x13c>
                {
                    cNextChar = pxNextTCB->pcTaskName[ x ];
    1fcc:	fec42703          	lw	a4,-20(s0)
    1fd0:	fd842783          	lw	a5,-40(s0)
    1fd4:	00f707b3          	add	a5,a4,a5
    1fd8:	0347c783          	lbu	a5,52(a5)
    1fdc:	fcf409a3          	sb	a5,-45(s0)

                    if( cNextChar != pcNameToQuery[ x ] )
    1fe0:	fc842703          	lw	a4,-56(s0)
    1fe4:	fd842783          	lw	a5,-40(s0)
    1fe8:	00f707b3          	add	a5,a4,a5
    1fec:	0007c783          	lbu	a5,0(a5)
    1ff0:	fd344703          	lbu	a4,-45(s0)
    1ff4:	00f70863          	beq	a4,a5,2004 <prvSearchForNameWithinSingleList+0x110>
                    {
                        /* Characters didn't match. */
                        xBreakLoop = pdTRUE;
    1ff8:	00100793          	li	a5,1
    1ffc:	fcf42e23          	sw	a5,-36(s0)
    2000:	01c0006f          	j	201c <prvSearchForNameWithinSingleList+0x128>
                    }
                    else if( cNextChar == ( char ) 0x00 )
    2004:	fd344783          	lbu	a5,-45(s0)
    2008:	00079a63          	bnez	a5,201c <prvSearchForNameWithinSingleList+0x128>
                    {
                        /* Both strings terminated, a match must have been
                         * found. */
                        pxReturn = pxNextTCB;
    200c:	fec42783          	lw	a5,-20(s0)
    2010:	fcf42a23          	sw	a5,-44(s0)
                        xBreakLoop = pdTRUE;
    2014:	00100793          	li	a5,1
    2018:	fcf42e23          	sw	a5,-36(s0)
                    else
                    {
                        mtCOVERAGE_TEST_MARKER();
                    }

                    if( xBreakLoop != pdFALSE )
    201c:	fdc42783          	lw	a5,-36(s0)
    2020:	02079063          	bnez	a5,2040 <prvSearchForNameWithinSingleList+0x14c>
                for( x = ( UBaseType_t ) 0; x < ( UBaseType_t ) configMAX_TASK_NAME_LEN; x++ )
    2024:	fd842783          	lw	a5,-40(s0)
    2028:	00178793          	addi	a5,a5,1
    202c:	fcf42c23          	sw	a5,-40(s0)
    2030:	fd842703          	lw	a4,-40(s0)
    2034:	00f00793          	li	a5,15
    2038:	f8e7fae3          	bgeu	a5,a4,1fcc <prvSearchForNameWithinSingleList+0xd8>
    203c:	0080006f          	j	2044 <prvSearchForNameWithinSingleList+0x150>
                    {
                        break;
    2040:	00000013          	nop
                    }
                }

                if( pxReturn != NULL )
    2044:	fd442783          	lw	a5,-44(s0)
    2048:	00079a63          	bnez	a5,205c <prvSearchForNameWithinSingleList+0x168>
                {
                    /* The handle has been found. */
                    break;
                }
            } while( pxNextTCB != pxFirstTCB );
    204c:	fec42703          	lw	a4,-20(s0)
    2050:	fe442783          	lw	a5,-28(s0)
    2054:	f0f71ce3          	bne	a4,a5,1f6c <prvSearchForNameWithinSingleList+0x78>
    2058:	0080006f          	j	2060 <prvSearchForNameWithinSingleList+0x16c>
                    break;
    205c:	00000013          	nop
        else
        {
            mtCOVERAGE_TEST_MARKER();
        }

        return pxReturn;
    2060:	fd442783          	lw	a5,-44(s0)
    }
    2064:	00078513          	mv	a0,a5
    2068:	03c12403          	lw	s0,60(sp)
    206c:	04010113          	addi	sp,sp,64
    2070:	00008067          	ret

00002074 <xTaskGetHandle>:
/*-----------------------------------------------------------*/

#if ( INCLUDE_xTaskGetHandle == 1 )

    TaskHandle_t xTaskGetHandle( const char * pcNameToQuery ) /*lint !e971 Unqualified char types are allowed for strings and single characters only. */
    {
    2074:	fd010113          	addi	sp,sp,-48
    2078:	02112623          	sw	ra,44(sp)
    207c:	02812423          	sw	s0,40(sp)
    2080:	03010413          	addi	s0,sp,48
    2084:	fca42e23          	sw	a0,-36(s0)
        UBaseType_t uxQueue = configMAX_PRIORITIES;
    2088:	00700793          	li	a5,7
    208c:	fef42423          	sw	a5,-24(s0)
        TCB_t * pxTCB;

        /* Task names will be truncated to configMAX_TASK_NAME_LEN - 1 bytes. */
        configASSERT( strlen( pcNameToQuery ) < configMAX_TASK_NAME_LEN );
    2090:	fdc42503          	lw	a0,-36(s0)
    2094:	4c90b0ef          	jal	ra,dd5c <strlen>
    2098:	00050713          	mv	a4,a0
    209c:	00f00793          	li	a5,15
    20a0:	00e7fa63          	bgeu	a5,a4,20b4 <xTaskGetHandle+0x40>
    20a4:	30047073          	csrci	mstatus,8
    20a8:	00100073          	ebreak
    20ac:	00000013          	nop
    20b0:	ffdff06f          	j	20ac <xTaskGetHandle+0x38>

        vTaskSuspendAll();
    20b4:	9d9ff0ef          	jal	ra,1a8c <vTaskSuspendAll>
        {
            /* Search the ready lists. */
            do
            {
                uxQueue--;
    20b8:	fe842783          	lw	a5,-24(s0)
    20bc:	fff78793          	addi	a5,a5,-1
    20c0:	fef42423          	sw	a5,-24(s0)
                pxTCB = prvSearchForNameWithinSingleList( ( List_t * ) &( pxReadyTasksLists[ uxQueue ] ), pcNameToQuery );
    20c4:	fe842703          	lw	a4,-24(s0)
    20c8:	00070793          	mv	a5,a4
    20cc:	00279793          	slli	a5,a5,0x2
    20d0:	00e787b3          	add	a5,a5,a4
    20d4:	00279793          	slli	a5,a5,0x2
    20d8:	00028737          	lui	a4,0x28
    20dc:	ce470713          	addi	a4,a4,-796 # 27ce4 <pxReadyTasksLists>
    20e0:	00e787b3          	add	a5,a5,a4
    20e4:	fdc42583          	lw	a1,-36(s0)
    20e8:	00078513          	mv	a0,a5
    20ec:	e09ff0ef          	jal	ra,1ef4 <prvSearchForNameWithinSingleList>
    20f0:	fea42623          	sw	a0,-20(s0)

                if( pxTCB != NULL )
    20f4:	fec42783          	lw	a5,-20(s0)
    20f8:	00079863          	bnez	a5,2108 <xTaskGetHandle+0x94>
                {
                    /* Found the handle. */
                    break;
                }
            } while( uxQueue > ( UBaseType_t ) tskIDLE_PRIORITY ); /*lint !e961 MISRA exception as the casts are only redundant for some ports. */
    20fc:	fe842783          	lw	a5,-24(s0)
    2100:	fa079ce3          	bnez	a5,20b8 <xTaskGetHandle+0x44>
    2104:	0080006f          	j	210c <xTaskGetHandle+0x98>
                    break;
    2108:	00000013          	nop

            /* Search the delayed lists. */
            if( pxTCB == NULL )
    210c:	fec42783          	lw	a5,-20(s0)
    2110:	00079e63          	bnez	a5,212c <xTaskGetHandle+0xb8>
            {
                pxTCB = prvSearchForNameWithinSingleList( ( List_t * ) pxDelayedTaskList, pcNameToQuery );
    2114:	000287b7          	lui	a5,0x28
    2118:	d987a783          	lw	a5,-616(a5) # 27d98 <pxDelayedTaskList>
    211c:	fdc42583          	lw	a1,-36(s0)
    2120:	00078513          	mv	a0,a5
    2124:	dd1ff0ef          	jal	ra,1ef4 <prvSearchForNameWithinSingleList>
    2128:	fea42623          	sw	a0,-20(s0)
            }

            if( pxTCB == NULL )
    212c:	fec42783          	lw	a5,-20(s0)
    2130:	00079e63          	bnez	a5,214c <xTaskGetHandle+0xd8>
            {
                pxTCB = prvSearchForNameWithinSingleList( ( List_t * ) pxOverflowDelayedTaskList, pcNameToQuery );
    2134:	000287b7          	lui	a5,0x28
    2138:	d9c7a783          	lw	a5,-612(a5) # 27d9c <pxOverflowDelayedTaskList>
    213c:	fdc42583          	lw	a1,-36(s0)
    2140:	00078513          	mv	a0,a5
    2144:	db1ff0ef          	jal	ra,1ef4 <prvSearchForNameWithinSingleList>
    2148:	fea42623          	sw	a0,-20(s0)
            }

            #if ( INCLUDE_vTaskSuspend == 1 )
            {
                if( pxTCB == NULL )
    214c:	fec42783          	lw	a5,-20(s0)
    2150:	00079c63          	bnez	a5,2168 <xTaskGetHandle+0xf4>
                {
                    /* Search the suspended list. */
                    pxTCB = prvSearchForNameWithinSingleList( &xSuspendedTaskList, pcNameToQuery );
    2154:	fdc42583          	lw	a1,-36(s0)
    2158:	000287b7          	lui	a5,0x28
    215c:	dcc78513          	addi	a0,a5,-564 # 27dcc <xSuspendedTaskList>
    2160:	d95ff0ef          	jal	ra,1ef4 <prvSearchForNameWithinSingleList>
    2164:	fea42623          	sw	a0,-20(s0)
            }
            #endif

            #if ( INCLUDE_vTaskDelete == 1 )
            {
                if( pxTCB == NULL )
    2168:	fec42783          	lw	a5,-20(s0)
    216c:	00079c63          	bnez	a5,2184 <xTaskGetHandle+0x110>
                {
                    /* Search the deleted list. */
                    pxTCB = prvSearchForNameWithinSingleList( &xTasksWaitingTermination, pcNameToQuery );
    2170:	fdc42583          	lw	a1,-36(s0)
    2174:	000287b7          	lui	a5,0x28
    2178:	db478513          	addi	a0,a5,-588 # 27db4 <xTasksWaitingTermination>
    217c:	d79ff0ef          	jal	ra,1ef4 <prvSearchForNameWithinSingleList>
    2180:	fea42623          	sw	a0,-20(s0)
                }
            }
            #endif
        }
        ( void ) xTaskResumeAll();
    2184:	939ff0ef          	jal	ra,1abc <xTaskResumeAll>

        return pxTCB;
    2188:	fec42783          	lw	a5,-20(s0)
    }
    218c:	00078513          	mv	a0,a5
    2190:	02c12083          	lw	ra,44(sp)
    2194:	02812403          	lw	s0,40(sp)
    2198:	03010113          	addi	sp,sp,48
    219c:	00008067          	ret

000021a0 <uxTaskGetSystemState>:
#if ( configUSE_TRACE_FACILITY == 1 )

    UBaseType_t uxTaskGetSystemState( TaskStatus_t * const pxTaskStatusArray,
                                      const UBaseType_t uxArraySize,
                                      configRUN_TIME_COUNTER_TYPE * const pulTotalRunTime )
    {
    21a0:	fd010113          	addi	sp,sp,-48
    21a4:	02112623          	sw	ra,44(sp)
    21a8:	02812423          	sw	s0,40(sp)
    21ac:	03010413          	addi	s0,sp,48
    21b0:	fca42e23          	sw	a0,-36(s0)
    21b4:	fcb42c23          	sw	a1,-40(s0)
    21b8:	fcc42a23          	sw	a2,-44(s0)
        UBaseType_t uxTask = 0, uxQueue = configMAX_PRIORITIES;
    21bc:	fe042423          	sw	zero,-24(s0)
    21c0:	00700793          	li	a5,7
    21c4:	fef42623          	sw	a5,-20(s0)

        vTaskSuspendAll();
    21c8:	8c5ff0ef          	jal	ra,1a8c <vTaskSuspendAll>
        {
            /* Is there a space in the array for each task in the system? */
            if( uxArraySize >= uxCurrentNumberOfTasks )
    21cc:	000287b7          	lui	a5,0x28
    21d0:	de07a783          	lw	a5,-544(a5) # 27de0 <uxCurrentNumberOfTasks>
    21d4:	fd842703          	lw	a4,-40(s0)
    21d8:	1af76063          	bltu	a4,a5,2378 <uxTaskGetSystemState+0x1d8>
            {
                /* Fill in an TaskStatus_t structure with information on each
                 * task in the Ready state. */
                do
                {
                    uxQueue--;
    21dc:	fec42783          	lw	a5,-20(s0)
    21e0:	fff78793          	addi	a5,a5,-1
    21e4:	fef42623          	sw	a5,-20(s0)
                    uxTask += prvListTasksWithinSingleList( &( pxTaskStatusArray[ uxTask ] ), &( pxReadyTasksLists[ uxQueue ] ), eReady );
    21e8:	fe842703          	lw	a4,-24(s0)
    21ec:	00070793          	mv	a5,a4
    21f0:	00379793          	slli	a5,a5,0x3
    21f4:	00e787b3          	add	a5,a5,a4
    21f8:	00279793          	slli	a5,a5,0x2
    21fc:	00078713          	mv	a4,a5
    2200:	fdc42783          	lw	a5,-36(s0)
    2204:	00e786b3          	add	a3,a5,a4
    2208:	fec42703          	lw	a4,-20(s0)
    220c:	00070793          	mv	a5,a4
    2210:	00279793          	slli	a5,a5,0x2
    2214:	00e787b3          	add	a5,a5,a4
    2218:	00279793          	slli	a5,a5,0x2
    221c:	00028737          	lui	a4,0x28
    2220:	ce470713          	addi	a4,a4,-796 # 27ce4 <pxReadyTasksLists>
    2224:	00e787b3          	add	a5,a5,a4
    2228:	00100613          	li	a2,1
    222c:	00078593          	mv	a1,a5
    2230:	00068513          	mv	a0,a3
    2234:	744010ef          	jal	ra,3978 <prvListTasksWithinSingleList>
    2238:	00050713          	mv	a4,a0
    223c:	fe842783          	lw	a5,-24(s0)
    2240:	00e787b3          	add	a5,a5,a4
    2244:	fef42423          	sw	a5,-24(s0)
                } while( uxQueue > ( UBaseType_t ) tskIDLE_PRIORITY ); /*lint !e961 MISRA exception as the casts are only redundant for some ports. */
    2248:	fec42783          	lw	a5,-20(s0)
    224c:	f80798e3          	bnez	a5,21dc <uxTaskGetSystemState+0x3c>

                /* Fill in an TaskStatus_t structure with information on each
                 * task in the Blocked state. */
                uxTask += prvListTasksWithinSingleList( &( pxTaskStatusArray[ uxTask ] ), ( List_t * ) pxDelayedTaskList, eBlocked );
    2250:	fe842703          	lw	a4,-24(s0)
    2254:	00070793          	mv	a5,a4
    2258:	00379793          	slli	a5,a5,0x3
    225c:	00e787b3          	add	a5,a5,a4
    2260:	00279793          	slli	a5,a5,0x2
    2264:	00078713          	mv	a4,a5
    2268:	fdc42783          	lw	a5,-36(s0)
    226c:	00e78733          	add	a4,a5,a4
    2270:	000287b7          	lui	a5,0x28
    2274:	d987a783          	lw	a5,-616(a5) # 27d98 <pxDelayedTaskList>
    2278:	00200613          	li	a2,2
    227c:	00078593          	mv	a1,a5
    2280:	00070513          	mv	a0,a4
    2284:	6f4010ef          	jal	ra,3978 <prvListTasksWithinSingleList>
    2288:	00050713          	mv	a4,a0
    228c:	fe842783          	lw	a5,-24(s0)
    2290:	00e787b3          	add	a5,a5,a4
    2294:	fef42423          	sw	a5,-24(s0)
                uxTask += prvListTasksWithinSingleList( &( pxTaskStatusArray[ uxTask ] ), ( List_t * ) pxOverflowDelayedTaskList, eBlocked );
    2298:	fe842703          	lw	a4,-24(s0)
    229c:	00070793          	mv	a5,a4
    22a0:	00379793          	slli	a5,a5,0x3
    22a4:	00e787b3          	add	a5,a5,a4
    22a8:	00279793          	slli	a5,a5,0x2
    22ac:	00078713          	mv	a4,a5
    22b0:	fdc42783          	lw	a5,-36(s0)
    22b4:	00e78733          	add	a4,a5,a4
    22b8:	000287b7          	lui	a5,0x28
    22bc:	d9c7a783          	lw	a5,-612(a5) # 27d9c <pxOverflowDelayedTaskList>
    22c0:	00200613          	li	a2,2
    22c4:	00078593          	mv	a1,a5
    22c8:	00070513          	mv	a0,a4
    22cc:	6ac010ef          	jal	ra,3978 <prvListTasksWithinSingleList>
    22d0:	00050713          	mv	a4,a0
    22d4:	fe842783          	lw	a5,-24(s0)
    22d8:	00e787b3          	add	a5,a5,a4
    22dc:	fef42423          	sw	a5,-24(s0)

                #if ( INCLUDE_vTaskDelete == 1 )
                {
                    /* Fill in an TaskStatus_t structure with information on
                     * each task that has been deleted but not yet cleaned up. */
                    uxTask += prvListTasksWithinSingleList( &( pxTaskStatusArray[ uxTask ] ), &xTasksWaitingTermination, eDeleted );
    22e0:	fe842703          	lw	a4,-24(s0)
    22e4:	00070793          	mv	a5,a4
    22e8:	00379793          	slli	a5,a5,0x3
    22ec:	00e787b3          	add	a5,a5,a4
    22f0:	00279793          	slli	a5,a5,0x2
    22f4:	00078713          	mv	a4,a5
    22f8:	fdc42783          	lw	a5,-36(s0)
    22fc:	00e78733          	add	a4,a5,a4
    2300:	00400613          	li	a2,4
    2304:	000287b7          	lui	a5,0x28
    2308:	db478593          	addi	a1,a5,-588 # 27db4 <xTasksWaitingTermination>
    230c:	00070513          	mv	a0,a4
    2310:	668010ef          	jal	ra,3978 <prvListTasksWithinSingleList>
    2314:	00050713          	mv	a4,a0
    2318:	fe842783          	lw	a5,-24(s0)
    231c:	00e787b3          	add	a5,a5,a4
    2320:	fef42423          	sw	a5,-24(s0)

                #if ( INCLUDE_vTaskSuspend == 1 )
                {
                    /* Fill in an TaskStatus_t structure with information on
                     * each task in the Suspended state. */
                    uxTask += prvListTasksWithinSingleList( &( pxTaskStatusArray[ uxTask ] ), &xSuspendedTaskList, eSuspended );
    2324:	fe842703          	lw	a4,-24(s0)
    2328:	00070793          	mv	a5,a4
    232c:	00379793          	slli	a5,a5,0x3
    2330:	00e787b3          	add	a5,a5,a4
    2334:	00279793          	slli	a5,a5,0x2
    2338:	00078713          	mv	a4,a5
    233c:	fdc42783          	lw	a5,-36(s0)
    2340:	00e78733          	add	a4,a5,a4
    2344:	00300613          	li	a2,3
    2348:	000287b7          	lui	a5,0x28
    234c:	dcc78593          	addi	a1,a5,-564 # 27dcc <xSuspendedTaskList>
    2350:	00070513          	mv	a0,a4
    2354:	624010ef          	jal	ra,3978 <prvListTasksWithinSingleList>
    2358:	00050713          	mv	a4,a0
    235c:	fe842783          	lw	a5,-24(s0)
    2360:	00e787b3          	add	a5,a5,a4
    2364:	fef42423          	sw	a5,-24(s0)
                        #endif
                    }
                }
                #else /* if ( configGENERATE_RUN_TIME_STATS == 1 ) */
                {
                    if( pulTotalRunTime != NULL )
    2368:	fd442783          	lw	a5,-44(s0)
    236c:	00078663          	beqz	a5,2378 <uxTaskGetSystemState+0x1d8>
                    {
                        *pulTotalRunTime = 0;
    2370:	fd442783          	lw	a5,-44(s0)
    2374:	0007a023          	sw	zero,0(a5)
            else
            {
                mtCOVERAGE_TEST_MARKER();
            }
        }
        ( void ) xTaskResumeAll();
    2378:	f44ff0ef          	jal	ra,1abc <xTaskResumeAll>

        return uxTask;
    237c:	fe842783          	lw	a5,-24(s0)
    }
    2380:	00078513          	mv	a0,a5
    2384:	02c12083          	lw	ra,44(sp)
    2388:	02812403          	lw	s0,40(sp)
    238c:	03010113          	addi	sp,sp,48
    2390:	00008067          	ret

00002394 <xTaskCatchUpTicks>:

#endif /* configUSE_TICKLESS_IDLE */
/*----------------------------------------------------------*/

BaseType_t xTaskCatchUpTicks( TickType_t xTicksToCatchUp )
{
    2394:	fd010113          	addi	sp,sp,-48
    2398:	02112623          	sw	ra,44(sp)
    239c:	02812423          	sw	s0,40(sp)
    23a0:	03010413          	addi	s0,sp,48
    23a4:	fca42e23          	sw	a0,-36(s0)
    BaseType_t xYieldOccurred;

    /* Must not be called with the scheduler suspended as the implementation
     * relies on xPendedTicks being wound down to 0 in xTaskResumeAll(). */
    configASSERT( uxSchedulerSuspended == 0 );
    23a8:	000287b7          	lui	a5,0x28
    23ac:	e087a783          	lw	a5,-504(a5) # 27e08 <uxSchedulerSuspended>
    23b0:	00078a63          	beqz	a5,23c4 <xTaskCatchUpTicks+0x30>
    23b4:	30047073          	csrci	mstatus,8
    23b8:	00100073          	ebreak
    23bc:	00000013          	nop
    23c0:	ffdff06f          	j	23bc <xTaskCatchUpTicks+0x28>

    /* Use xPendedTicks to mimic xTicksToCatchUp number of ticks occurring when
     * the scheduler is suspended so the ticks are executed in xTaskResumeAll(). */
    vTaskSuspendAll();
    23c4:	ec8ff0ef          	jal	ra,1a8c <vTaskSuspendAll>

    /* Prevent the tick interrupt modifying xPendedTicks simultaneously. */
    taskENTER_CRITICAL();
    23c8:	30047073          	csrci	mstatus,8
    23cc:	000267b7          	lui	a5,0x26
    23d0:	0147a783          	lw	a5,20(a5) # 26014 <xCriticalNesting>
    23d4:	00178713          	addi	a4,a5,1
    23d8:	000267b7          	lui	a5,0x26
    23dc:	00e7aa23          	sw	a4,20(a5) # 26014 <xCriticalNesting>
    {
        xPendedTicks += xTicksToCatchUp;
    23e0:	000287b7          	lui	a5,0x28
    23e4:	df07a703          	lw	a4,-528(a5) # 27df0 <xPendedTicks>
    23e8:	fdc42783          	lw	a5,-36(s0)
    23ec:	00f70733          	add	a4,a4,a5
    23f0:	000287b7          	lui	a5,0x28
    23f4:	dee7a823          	sw	a4,-528(a5) # 27df0 <xPendedTicks>
    }
    taskEXIT_CRITICAL();
    23f8:	000267b7          	lui	a5,0x26
    23fc:	0147a783          	lw	a5,20(a5) # 26014 <xCriticalNesting>
    2400:	fff78713          	addi	a4,a5,-1
    2404:	000267b7          	lui	a5,0x26
    2408:	00e7aa23          	sw	a4,20(a5) # 26014 <xCriticalNesting>
    240c:	000267b7          	lui	a5,0x26
    2410:	0147a783          	lw	a5,20(a5) # 26014 <xCriticalNesting>
    2414:	00079463          	bnez	a5,241c <xTaskCatchUpTicks+0x88>
    2418:	30046073          	csrsi	mstatus,8
    xYieldOccurred = xTaskResumeAll();
    241c:	ea0ff0ef          	jal	ra,1abc <xTaskResumeAll>
    2420:	fea42623          	sw	a0,-20(s0)

    return xYieldOccurred;
    2424:	fec42783          	lw	a5,-20(s0)
}
    2428:	00078513          	mv	a0,a5
    242c:	02c12083          	lw	ra,44(sp)
    2430:	02812403          	lw	s0,40(sp)
    2434:	03010113          	addi	sp,sp,48
    2438:	00008067          	ret

0000243c <xTaskAbortDelay>:
/*----------------------------------------------------------*/

#if ( INCLUDE_xTaskAbortDelay == 1 )

    BaseType_t xTaskAbortDelay( TaskHandle_t xTask )
    {
    243c:	fd010113          	addi	sp,sp,-48
    2440:	02112623          	sw	ra,44(sp)
    2444:	02812423          	sw	s0,40(sp)
    2448:	03010413          	addi	s0,sp,48
    244c:	fca42e23          	sw	a0,-36(s0)
        TCB_t * pxTCB = xTask;
    2450:	fdc42783          	lw	a5,-36(s0)
    2454:	fef42423          	sw	a5,-24(s0)
        BaseType_t xReturn;

        configASSERT( pxTCB );
    2458:	fe842783          	lw	a5,-24(s0)
    245c:	00079a63          	bnez	a5,2470 <xTaskAbortDelay+0x34>
    2460:	30047073          	csrci	mstatus,8
    2464:	00100073          	ebreak
    2468:	00000013          	nop
    246c:	ffdff06f          	j	2468 <xTaskAbortDelay+0x2c>

        vTaskSuspendAll();
    2470:	e1cff0ef          	jal	ra,1a8c <vTaskSuspendAll>
        {
            /* A task can only be prematurely removed from the Blocked state if
             * it is actually in the Blocked state. */
            if( eTaskGetState( xTask ) == eBlocked )
    2474:	fdc42503          	lw	a0,-36(s0)
    2478:	955fe0ef          	jal	ra,dcc <eTaskGetState>
    247c:	00050713          	mv	a4,a0
    2480:	00200793          	li	a5,2
    2484:	1af71863          	bne	a4,a5,2634 <xTaskAbortDelay+0x1f8>
            {
                xReturn = pdPASS;
    2488:	00100793          	li	a5,1
    248c:	fef42223          	sw	a5,-28(s0)

                /* Remove the reference to the task from the blocked list.  An
                 * interrupt won't touch the xStateListItem because the
                 * scheduler is suspended. */
                ( void ) uxListRemove( &( pxTCB->xStateListItem ) );
    2490:	fe842783          	lw	a5,-24(s0)
    2494:	00478793          	addi	a5,a5,4
    2498:	00078513          	mv	a0,a5
    249c:	1cc070ef          	jal	ra,9668 <uxListRemove>

                /* Is the task waiting on an event also?  If so remove it from
                 * the event list too.  Interrupts can touch the event list item,
                 * even though the scheduler is suspended, so a critical section
                 * is used. */
                taskENTER_CRITICAL();
    24a0:	30047073          	csrci	mstatus,8
    24a4:	000267b7          	lui	a5,0x26
    24a8:	0147a783          	lw	a5,20(a5) # 26014 <xCriticalNesting>
    24ac:	00178713          	addi	a4,a5,1
    24b0:	000267b7          	lui	a5,0x26
    24b4:	00e7aa23          	sw	a4,20(a5) # 26014 <xCriticalNesting>
                {
                    if( listLIST_ITEM_CONTAINER( &( pxTCB->xEventListItem ) ) != NULL )
    24b8:	fe842783          	lw	a5,-24(s0)
    24bc:	0287a783          	lw	a5,40(a5)
    24c0:	02078063          	beqz	a5,24e0 <xTaskAbortDelay+0xa4>
                    {
                        ( void ) uxListRemove( &( pxTCB->xEventListItem ) );
    24c4:	fe842783          	lw	a5,-24(s0)
    24c8:	01878793          	addi	a5,a5,24
    24cc:	00078513          	mv	a0,a5
    24d0:	198070ef          	jal	ra,9668 <uxListRemove>

                        /* This lets the task know it was forcibly removed from the
                         * blocked state so it should not re-evaluate its block time and
                         * then block again. */
                        pxTCB->ucDelayAborted = pdTRUE;
    24d4:	fe842783          	lw	a5,-24(s0)
    24d8:	00100713          	li	a4,1
    24dc:	58e782a3          	sb	a4,1413(a5)
                    else
                    {
                        mtCOVERAGE_TEST_MARKER();
                    }
                }
                taskEXIT_CRITICAL();
    24e0:	000267b7          	lui	a5,0x26
    24e4:	0147a783          	lw	a5,20(a5) # 26014 <xCriticalNesting>
    24e8:	fff78713          	addi	a4,a5,-1
    24ec:	000267b7          	lui	a5,0x26
    24f0:	00e7aa23          	sw	a4,20(a5) # 26014 <xCriticalNesting>
    24f4:	000267b7          	lui	a5,0x26
    24f8:	0147a783          	lw	a5,20(a5) # 26014 <xCriticalNesting>
    24fc:	00079463          	bnez	a5,2504 <xTaskAbortDelay+0xc8>
    2500:	30046073          	csrsi	mstatus,8

                /* Place the unblocked task into the appropriate ready list. */
                prvAddTaskToReadyList( pxTCB );
    2504:	fe842783          	lw	a5,-24(s0)
    2508:	02c7a783          	lw	a5,44(a5)
    250c:	00100713          	li	a4,1
    2510:	00f71733          	sll	a4,a4,a5
    2514:	000287b7          	lui	a5,0x28
    2518:	de87a783          	lw	a5,-536(a5) # 27de8 <uxTopReadyPriority>
    251c:	00f76733          	or	a4,a4,a5
    2520:	000287b7          	lui	a5,0x28
    2524:	dee7a423          	sw	a4,-536(a5) # 27de8 <uxTopReadyPriority>
    2528:	fe842783          	lw	a5,-24(s0)
    252c:	02c7a703          	lw	a4,44(a5)
    2530:	000287b7          	lui	a5,0x28
    2534:	ce478693          	addi	a3,a5,-796 # 27ce4 <pxReadyTasksLists>
    2538:	00070793          	mv	a5,a4
    253c:	00279793          	slli	a5,a5,0x2
    2540:	00e787b3          	add	a5,a5,a4
    2544:	00279793          	slli	a5,a5,0x2
    2548:	00f687b3          	add	a5,a3,a5
    254c:	0047a783          	lw	a5,4(a5)
    2550:	fef42623          	sw	a5,-20(s0)
    2554:	fe842783          	lw	a5,-24(s0)
    2558:	fec42703          	lw	a4,-20(s0)
    255c:	00e7a423          	sw	a4,8(a5)
    2560:	fec42783          	lw	a5,-20(s0)
    2564:	0087a703          	lw	a4,8(a5)
    2568:	fe842783          	lw	a5,-24(s0)
    256c:	00e7a623          	sw	a4,12(a5)
    2570:	fec42783          	lw	a5,-20(s0)
    2574:	0087a783          	lw	a5,8(a5)
    2578:	fe842703          	lw	a4,-24(s0)
    257c:	00470713          	addi	a4,a4,4
    2580:	00e7a223          	sw	a4,4(a5)
    2584:	fe842783          	lw	a5,-24(s0)
    2588:	00478713          	addi	a4,a5,4
    258c:	fec42783          	lw	a5,-20(s0)
    2590:	00e7a423          	sw	a4,8(a5)
    2594:	fe842783          	lw	a5,-24(s0)
    2598:	02c7a703          	lw	a4,44(a5)
    259c:	00070793          	mv	a5,a4
    25a0:	00279793          	slli	a5,a5,0x2
    25a4:	00e787b3          	add	a5,a5,a4
    25a8:	00279793          	slli	a5,a5,0x2
    25ac:	00028737          	lui	a4,0x28
    25b0:	ce470713          	addi	a4,a4,-796 # 27ce4 <pxReadyTasksLists>
    25b4:	00e78733          	add	a4,a5,a4
    25b8:	fe842783          	lw	a5,-24(s0)
    25bc:	00e7aa23          	sw	a4,20(a5)
    25c0:	fe842783          	lw	a5,-24(s0)
    25c4:	02c7a703          	lw	a4,44(a5)
    25c8:	000287b7          	lui	a5,0x28
    25cc:	ce478693          	addi	a3,a5,-796 # 27ce4 <pxReadyTasksLists>
    25d0:	00070793          	mv	a5,a4
    25d4:	00279793          	slli	a5,a5,0x2
    25d8:	00e787b3          	add	a5,a5,a4
    25dc:	00279793          	slli	a5,a5,0x2
    25e0:	00f687b3          	add	a5,a3,a5
    25e4:	0007a783          	lw	a5,0(a5)
    25e8:	00178693          	addi	a3,a5,1
    25ec:	000287b7          	lui	a5,0x28
    25f0:	ce478613          	addi	a2,a5,-796 # 27ce4 <pxReadyTasksLists>
    25f4:	00070793          	mv	a5,a4
    25f8:	00279793          	slli	a5,a5,0x2
    25fc:	00e787b3          	add	a5,a5,a4
    2600:	00279793          	slli	a5,a5,0x2
    2604:	00f607b3          	add	a5,a2,a5
    2608:	00d7a023          	sw	a3,0(a5)
                #if ( configUSE_PREEMPTION == 1 )
                {
                    /* Preemption is on, but a context switch should only be
                     * performed if the unblocked task has a priority that is
                     * higher than the currently executing task. */
                    if( pxTCB->uxPriority > pxCurrentTCB->uxPriority )
    260c:	fe842783          	lw	a5,-24(s0)
    2610:	02c7a703          	lw	a4,44(a5)
    2614:	000287b7          	lui	a5,0x28
    2618:	c507a783          	lw	a5,-944(a5) # 27c50 <pxCurrentTCB>
    261c:	02c7a783          	lw	a5,44(a5)
    2620:	00e7fc63          	bgeu	a5,a4,2638 <xTaskAbortDelay+0x1fc>
                    {
                        /* Pend the yield to be performed when the scheduler
                         * is unsuspended. */
                        xYieldPending = pdTRUE;
    2624:	000287b7          	lui	a5,0x28
    2628:	00100713          	li	a4,1
    262c:	dee7aa23          	sw	a4,-524(a5) # 27df4 <xYieldPending>
    2630:	0080006f          	j	2638 <xTaskAbortDelay+0x1fc>
                }
                #endif /* configUSE_PREEMPTION */
            }
            else
            {
                xReturn = pdFAIL;
    2634:	fe042223          	sw	zero,-28(s0)
            }
        }
        ( void ) xTaskResumeAll();
    2638:	c84ff0ef          	jal	ra,1abc <xTaskResumeAll>

        return xReturn;
    263c:	fe442783          	lw	a5,-28(s0)
    }
    2640:	00078513          	mv	a0,a5
    2644:	02c12083          	lw	ra,44(sp)
    2648:	02812403          	lw	s0,40(sp)
    264c:	03010113          	addi	sp,sp,48
    2650:	00008067          	ret

00002654 <xTaskIncrementTick>:

#endif /* INCLUDE_xTaskAbortDelay */
/*----------------------------------------------------------*/

BaseType_t xTaskIncrementTick( void )
{
    2654:	fd010113          	addi	sp,sp,-48
    2658:	02112623          	sw	ra,44(sp)
    265c:	02812423          	sw	s0,40(sp)
    2660:	03010413          	addi	s0,sp,48
    TCB_t * pxTCB;
    TickType_t xItemValue;
    BaseType_t xSwitchRequired = pdFALSE;
    2664:	fc042823          	sw	zero,-48(s0)
    /* Called by the portable layer each time a tick interrupt occurs.
     * Increments the tick then checks to see if the new tick value will cause any
     * tasks to be unblocked. */
    traceTASK_INCREMENT_TICK( xTickCount );

    if( uxSchedulerSuspended == ( UBaseType_t ) pdFALSE )
    2668:	000287b7          	lui	a5,0x28
    266c:	e087a783          	lw	a5,-504(a5) # 27e08 <uxSchedulerSuspended>
    2670:	36079c63          	bnez	a5,29e8 <xTaskIncrementTick+0x394>
    {
        /* Minor optimisation.  The tick count cannot change in this
         * block. */
        const TickType_t xConstTickCount = xTickCount + ( TickType_t ) 1;
    2674:	000287b7          	lui	a5,0x28
    2678:	de47a783          	lw	a5,-540(a5) # 27de4 <xTickCount>
    267c:	00178793          	addi	a5,a5,1
    2680:	fcf42a23          	sw	a5,-44(s0)

        /* Increment the RTOS tick, switching the delayed and overflowed
         * delayed lists if it wraps to 0. */
        xTickCount = xConstTickCount;
    2684:	000287b7          	lui	a5,0x28
    2688:	fd442703          	lw	a4,-44(s0)
    268c:	dee7a223          	sw	a4,-540(a5) # 27de4 <xTickCount>

        if( xConstTickCount == ( TickType_t ) 0U ) /*lint !e774 'if' does not always evaluate to false as it is looking for an overflow. */
    2690:	fd442783          	lw	a5,-44(s0)
    2694:	06079263          	bnez	a5,26f8 <xTaskIncrementTick+0xa4>
        {
            taskSWITCH_DELAYED_LISTS();
    2698:	000287b7          	lui	a5,0x28
    269c:	d987a783          	lw	a5,-616(a5) # 27d98 <pxDelayedTaskList>
    26a0:	0007a783          	lw	a5,0(a5)
    26a4:	00078a63          	beqz	a5,26b8 <xTaskIncrementTick+0x64>
    26a8:	30047073          	csrci	mstatus,8
    26ac:	00100073          	ebreak
    26b0:	00000013          	nop
    26b4:	ffdff06f          	j	26b0 <xTaskIncrementTick+0x5c>
    26b8:	000287b7          	lui	a5,0x28
    26bc:	d987a783          	lw	a5,-616(a5) # 27d98 <pxDelayedTaskList>
    26c0:	fcf42c23          	sw	a5,-40(s0)
    26c4:	000287b7          	lui	a5,0x28
    26c8:	d9c7a703          	lw	a4,-612(a5) # 27d9c <pxOverflowDelayedTaskList>
    26cc:	000287b7          	lui	a5,0x28
    26d0:	d8e7ac23          	sw	a4,-616(a5) # 27d98 <pxDelayedTaskList>
    26d4:	000287b7          	lui	a5,0x28
    26d8:	fd842703          	lw	a4,-40(s0)
    26dc:	d8e7ae23          	sw	a4,-612(a5) # 27d9c <pxOverflowDelayedTaskList>
    26e0:	000287b7          	lui	a5,0x28
    26e4:	df87a783          	lw	a5,-520(a5) # 27df8 <xNumOfOverflows>
    26e8:	00178713          	addi	a4,a5,1
    26ec:	000287b7          	lui	a5,0x28
    26f0:	dee7ac23          	sw	a4,-520(a5) # 27df8 <xNumOfOverflows>
    26f4:	478010ef          	jal	ra,3b6c <prvResetNextTaskUnblockTime>

        /* See if this tick has made a timeout expire.  Tasks are stored in
         * the  queue in the order of their wake time - meaning once one task
         * has been found whose block time has not expired there is no need to
         * look any further down the list. */
        if( xConstTickCount >= xNextTaskUnblockTime )
    26f8:	000287b7          	lui	a5,0x28
    26fc:	e007a783          	lw	a5,-512(a5) # 27e00 <xNextTaskUnblockTime>
    2700:	fd442703          	lw	a4,-44(s0)
    2704:	28f76063          	bltu	a4,a5,2984 <xTaskIncrementTick+0x330>
        {
            for( ; ; )
            {
                if( listLIST_IS_EMPTY( pxDelayedTaskList ) != pdFALSE )
    2708:	000287b7          	lui	a5,0x28
    270c:	d987a783          	lw	a5,-616(a5) # 27d98 <pxDelayedTaskList>
    2710:	0007a783          	lw	a5,0(a5)
    2714:	00079a63          	bnez	a5,2728 <xTaskIncrementTick+0xd4>
                    /* The delayed list is empty.  Set xNextTaskUnblockTime
                     * to the maximum possible value so it is extremely
                     * unlikely that the
                     * if( xTickCount >= xNextTaskUnblockTime ) test will pass
                     * next time through. */
                    xNextTaskUnblockTime = portMAX_DELAY; /*lint !e961 MISRA exception as the casts are only redundant for some ports. */
    2718:	000287b7          	lui	a5,0x28
    271c:	fff00713          	li	a4,-1
    2720:	e0e7a023          	sw	a4,-512(a5) # 27e00 <xNextTaskUnblockTime>
                    break;
    2724:	2600006f          	j	2984 <xTaskIncrementTick+0x330>
                {
                    /* The delayed list is not empty, get the value of the
                     * item at the head of the delayed list.  This is the time
                     * at which the task at the head of the delayed list must
                     * be removed from the Blocked state. */
                    pxTCB = listGET_OWNER_OF_HEAD_ENTRY( pxDelayedTaskList ); /*lint !e9079 void * is used as this macro is used with timers and co-routines too.  Alignment is known to be fine as the type of the pointer stored and retrieved is the same. */
    2728:	000287b7          	lui	a5,0x28
    272c:	d987a783          	lw	a5,-616(a5) # 27d98 <pxDelayedTaskList>
    2730:	00c7a783          	lw	a5,12(a5)
    2734:	00c7a783          	lw	a5,12(a5)
    2738:	fcf42e23          	sw	a5,-36(s0)
                    xItemValue = listGET_LIST_ITEM_VALUE( &( pxTCB->xStateListItem ) );
    273c:	fdc42783          	lw	a5,-36(s0)
    2740:	0047a783          	lw	a5,4(a5)
    2744:	fef42023          	sw	a5,-32(s0)

                    if( xConstTickCount < xItemValue )
    2748:	fd442703          	lw	a4,-44(s0)
    274c:	fe042783          	lw	a5,-32(s0)
    2750:	00f77a63          	bgeu	a4,a5,2764 <xTaskIncrementTick+0x110>
                        /* It is not time to unblock this item yet, but the
                         * item value is the time at which the task at the head
                         * of the blocked list must be removed from the Blocked
                         * state -  so record the item value in
                         * xNextTaskUnblockTime. */
                        xNextTaskUnblockTime = xItemValue;
    2754:	000287b7          	lui	a5,0x28
    2758:	fe042703          	lw	a4,-32(s0)
    275c:	e0e7a023          	sw	a4,-512(a5) # 27e00 <xNextTaskUnblockTime>
                        break; /*lint !e9011 Code structure here is deemed easier to understand with multiple breaks. */
    2760:	2240006f          	j	2984 <xTaskIncrementTick+0x330>
                    {
                        mtCOVERAGE_TEST_MARKER();
                    }

                    /* It is time to remove the item from the Blocked state. */
                    listREMOVE_ITEM( &( pxTCB->xStateListItem ) );
    2764:	fdc42783          	lw	a5,-36(s0)
    2768:	0147a783          	lw	a5,20(a5)
    276c:	fef42223          	sw	a5,-28(s0)
    2770:	fdc42783          	lw	a5,-36(s0)
    2774:	0087a783          	lw	a5,8(a5)
    2778:	fdc42703          	lw	a4,-36(s0)
    277c:	00c72703          	lw	a4,12(a4)
    2780:	00e7a423          	sw	a4,8(a5)
    2784:	fdc42783          	lw	a5,-36(s0)
    2788:	00c7a783          	lw	a5,12(a5)
    278c:	fdc42703          	lw	a4,-36(s0)
    2790:	00872703          	lw	a4,8(a4)
    2794:	00e7a223          	sw	a4,4(a5)
    2798:	fe442783          	lw	a5,-28(s0)
    279c:	0047a703          	lw	a4,4(a5)
    27a0:	fdc42783          	lw	a5,-36(s0)
    27a4:	00478793          	addi	a5,a5,4
    27a8:	00f71a63          	bne	a4,a5,27bc <xTaskIncrementTick+0x168>
    27ac:	fdc42783          	lw	a5,-36(s0)
    27b0:	00c7a703          	lw	a4,12(a5)
    27b4:	fe442783          	lw	a5,-28(s0)
    27b8:	00e7a223          	sw	a4,4(a5)
    27bc:	fdc42783          	lw	a5,-36(s0)
    27c0:	0007aa23          	sw	zero,20(a5)
    27c4:	fe442783          	lw	a5,-28(s0)
    27c8:	0007a783          	lw	a5,0(a5)
    27cc:	fff78713          	addi	a4,a5,-1
    27d0:	fe442783          	lw	a5,-28(s0)
    27d4:	00e7a023          	sw	a4,0(a5)

                    /* Is the task waiting on an event also?  If so remove
                     * it from the event list. */
                    if( listLIST_ITEM_CONTAINER( &( pxTCB->xEventListItem ) ) != NULL )
    27d8:	fdc42783          	lw	a5,-36(s0)
    27dc:	0287a783          	lw	a5,40(a5)
    27e0:	06078c63          	beqz	a5,2858 <xTaskIncrementTick+0x204>
                    {
                        listREMOVE_ITEM( &( pxTCB->xEventListItem ) );
    27e4:	fdc42783          	lw	a5,-36(s0)
    27e8:	0287a783          	lw	a5,40(a5)
    27ec:	fef42423          	sw	a5,-24(s0)
    27f0:	fdc42783          	lw	a5,-36(s0)
    27f4:	01c7a783          	lw	a5,28(a5)
    27f8:	fdc42703          	lw	a4,-36(s0)
    27fc:	02072703          	lw	a4,32(a4)
    2800:	00e7a423          	sw	a4,8(a5)
    2804:	fdc42783          	lw	a5,-36(s0)
    2808:	0207a783          	lw	a5,32(a5)
    280c:	fdc42703          	lw	a4,-36(s0)
    2810:	01c72703          	lw	a4,28(a4)
    2814:	00e7a223          	sw	a4,4(a5)
    2818:	fe842783          	lw	a5,-24(s0)
    281c:	0047a703          	lw	a4,4(a5)
    2820:	fdc42783          	lw	a5,-36(s0)
    2824:	01878793          	addi	a5,a5,24
    2828:	00f71a63          	bne	a4,a5,283c <xTaskIncrementTick+0x1e8>
    282c:	fdc42783          	lw	a5,-36(s0)
    2830:	0207a703          	lw	a4,32(a5)
    2834:	fe842783          	lw	a5,-24(s0)
    2838:	00e7a223          	sw	a4,4(a5)
    283c:	fdc42783          	lw	a5,-36(s0)
    2840:	0207a423          	sw	zero,40(a5)
    2844:	fe842783          	lw	a5,-24(s0)
    2848:	0007a783          	lw	a5,0(a5)
    284c:	fff78713          	addi	a4,a5,-1
    2850:	fe842783          	lw	a5,-24(s0)
    2854:	00e7a023          	sw	a4,0(a5)
                        mtCOVERAGE_TEST_MARKER();
                    }

                    /* Place the unblocked task into the appropriate ready
                     * list. */
                    prvAddTaskToReadyList( pxTCB );
    2858:	fdc42783          	lw	a5,-36(s0)
    285c:	02c7a783          	lw	a5,44(a5)
    2860:	00100713          	li	a4,1
    2864:	00f71733          	sll	a4,a4,a5
    2868:	000287b7          	lui	a5,0x28
    286c:	de87a783          	lw	a5,-536(a5) # 27de8 <uxTopReadyPriority>
    2870:	00f76733          	or	a4,a4,a5
    2874:	000287b7          	lui	a5,0x28
    2878:	dee7a423          	sw	a4,-536(a5) # 27de8 <uxTopReadyPriority>
    287c:	fdc42783          	lw	a5,-36(s0)
    2880:	02c7a703          	lw	a4,44(a5)
    2884:	000287b7          	lui	a5,0x28
    2888:	ce478693          	addi	a3,a5,-796 # 27ce4 <pxReadyTasksLists>
    288c:	00070793          	mv	a5,a4
    2890:	00279793          	slli	a5,a5,0x2
    2894:	00e787b3          	add	a5,a5,a4
    2898:	00279793          	slli	a5,a5,0x2
    289c:	00f687b3          	add	a5,a3,a5
    28a0:	0047a783          	lw	a5,4(a5)
    28a4:	fef42623          	sw	a5,-20(s0)
    28a8:	fdc42783          	lw	a5,-36(s0)
    28ac:	fec42703          	lw	a4,-20(s0)
    28b0:	00e7a423          	sw	a4,8(a5)
    28b4:	fec42783          	lw	a5,-20(s0)
    28b8:	0087a703          	lw	a4,8(a5)
    28bc:	fdc42783          	lw	a5,-36(s0)
    28c0:	00e7a623          	sw	a4,12(a5)
    28c4:	fec42783          	lw	a5,-20(s0)
    28c8:	0087a783          	lw	a5,8(a5)
    28cc:	fdc42703          	lw	a4,-36(s0)
    28d0:	00470713          	addi	a4,a4,4
    28d4:	00e7a223          	sw	a4,4(a5)
    28d8:	fdc42783          	lw	a5,-36(s0)
    28dc:	00478713          	addi	a4,a5,4
    28e0:	fec42783          	lw	a5,-20(s0)
    28e4:	00e7a423          	sw	a4,8(a5)
    28e8:	fdc42783          	lw	a5,-36(s0)
    28ec:	02c7a703          	lw	a4,44(a5)
    28f0:	00070793          	mv	a5,a4
    28f4:	00279793          	slli	a5,a5,0x2
    28f8:	00e787b3          	add	a5,a5,a4
    28fc:	00279793          	slli	a5,a5,0x2
    2900:	00028737          	lui	a4,0x28
    2904:	ce470713          	addi	a4,a4,-796 # 27ce4 <pxReadyTasksLists>
    2908:	00e78733          	add	a4,a5,a4
    290c:	fdc42783          	lw	a5,-36(s0)
    2910:	00e7aa23          	sw	a4,20(a5)
    2914:	fdc42783          	lw	a5,-36(s0)
    2918:	02c7a703          	lw	a4,44(a5)
    291c:	000287b7          	lui	a5,0x28
    2920:	ce478693          	addi	a3,a5,-796 # 27ce4 <pxReadyTasksLists>
    2924:	00070793          	mv	a5,a4
    2928:	00279793          	slli	a5,a5,0x2
    292c:	00e787b3          	add	a5,a5,a4
    2930:	00279793          	slli	a5,a5,0x2
    2934:	00f687b3          	add	a5,a3,a5
    2938:	0007a783          	lw	a5,0(a5)
    293c:	00178693          	addi	a3,a5,1
    2940:	000287b7          	lui	a5,0x28
    2944:	ce478613          	addi	a2,a5,-796 # 27ce4 <pxReadyTasksLists>
    2948:	00070793          	mv	a5,a4
    294c:	00279793          	slli	a5,a5,0x2
    2950:	00e787b3          	add	a5,a5,a4
    2954:	00279793          	slli	a5,a5,0x2
    2958:	00f607b3          	add	a5,a2,a5
    295c:	00d7a023          	sw	a3,0(a5)
                    {
                        /* Preemption is on, but a context switch should
                         * only be performed if the unblocked task has a
                         * priority that is equal to or higher than the
                         * currently executing task. */
                        if( pxTCB->uxPriority >= pxCurrentTCB->uxPriority )
    2960:	fdc42783          	lw	a5,-36(s0)
    2964:	02c7a703          	lw	a4,44(a5)
    2968:	000287b7          	lui	a5,0x28
    296c:	c507a783          	lw	a5,-944(a5) # 27c50 <pxCurrentTCB>
    2970:	02c7a783          	lw	a5,44(a5)
    2974:	d8f76ae3          	bltu	a4,a5,2708 <xTaskIncrementTick+0xb4>
                        {
                            xSwitchRequired = pdTRUE;
    2978:	00100793          	li	a5,1
    297c:	fcf42823          	sw	a5,-48(s0)
                if( listLIST_IS_EMPTY( pxDelayedTaskList ) != pdFALSE )
    2980:	d89ff06f          	j	2708 <xTaskIncrementTick+0xb4>
        /* Tasks of equal priority to the currently running task will share
         * processing time (time slice) if preemption is on, and the application
         * writer has not explicitly turned time slicing off. */
        #if ( ( configUSE_PREEMPTION == 1 ) && ( configUSE_TIME_SLICING == 1 ) )
        {
            if( listCURRENT_LIST_LENGTH( &( pxReadyTasksLists[ pxCurrentTCB->uxPriority ] ) ) > ( UBaseType_t ) 1 )
    2984:	000287b7          	lui	a5,0x28
    2988:	c507a783          	lw	a5,-944(a5) # 27c50 <pxCurrentTCB>
    298c:	02c7a703          	lw	a4,44(a5)
    2990:	000287b7          	lui	a5,0x28
    2994:	ce478693          	addi	a3,a5,-796 # 27ce4 <pxReadyTasksLists>
    2998:	00070793          	mv	a5,a4
    299c:	00279793          	slli	a5,a5,0x2
    29a0:	00e787b3          	add	a5,a5,a4
    29a4:	00279793          	slli	a5,a5,0x2
    29a8:	00f687b3          	add	a5,a3,a5
    29ac:	0007a703          	lw	a4,0(a5)
    29b0:	00100793          	li	a5,1
    29b4:	00e7f663          	bgeu	a5,a4,29c0 <xTaskIncrementTick+0x36c>
            {
                xSwitchRequired = pdTRUE;
    29b8:	00100793          	li	a5,1
    29bc:	fcf42823          	sw	a5,-48(s0)

        #if ( configUSE_TICK_HOOK == 1 )
        {
            /* Guard against the tick hook being called when the pended tick
             * count is being unwound (when the scheduler is being unlocked). */
            if( xPendedTicks == ( TickType_t ) 0 )
    29c0:	000287b7          	lui	a5,0x28
    29c4:	df07a783          	lw	a5,-528(a5) # 27df0 <xPendedTicks>
    29c8:	00079463          	bnez	a5,29d0 <xTaskIncrementTick+0x37c>
            {
                vApplicationTickHook();
    29cc:	010040ef          	jal	ra,69dc <vApplicationTickHook>
        }
        #endif /* configUSE_TICK_HOOK */

        #if ( configUSE_PREEMPTION == 1 )
        {
            if( xYieldPending != pdFALSE )
    29d0:	000287b7          	lui	a5,0x28
    29d4:	df47a783          	lw	a5,-524(a5) # 27df4 <xYieldPending>
    29d8:	02078463          	beqz	a5,2a00 <xTaskIncrementTick+0x3ac>
            {
                xSwitchRequired = pdTRUE;
    29dc:	00100793          	li	a5,1
    29e0:	fcf42823          	sw	a5,-48(s0)
    29e4:	01c0006f          	j	2a00 <xTaskIncrementTick+0x3ac>
        }
        #endif /* configUSE_PREEMPTION */
    }
    else
    {
        ++xPendedTicks;
    29e8:	000287b7          	lui	a5,0x28
    29ec:	df07a783          	lw	a5,-528(a5) # 27df0 <xPendedTicks>
    29f0:	00178713          	addi	a4,a5,1
    29f4:	000287b7          	lui	a5,0x28
    29f8:	dee7a823          	sw	a4,-528(a5) # 27df0 <xPendedTicks>

        /* The tick hook gets called at regular intervals, even if the
         * scheduler is locked. */
        #if ( configUSE_TICK_HOOK == 1 )
        {
            vApplicationTickHook();
    29fc:	7e1030ef          	jal	ra,69dc <vApplicationTickHook>
        }
        #endif
    }

    return xSwitchRequired;
    2a00:	fd042783          	lw	a5,-48(s0)
}
    2a04:	00078513          	mv	a0,a5
    2a08:	02c12083          	lw	ra,44(sp)
    2a0c:	02812403          	lw	s0,40(sp)
    2a10:	03010113          	addi	sp,sp,48
    2a14:	00008067          	ret

00002a18 <vTaskSwitchContext>:

#endif /* configUSE_APPLICATION_TASK_TAG */
/*-----------------------------------------------------------*/

void vTaskSwitchContext( void )
{
    2a18:	fe010113          	addi	sp,sp,-32
    2a1c:	00112e23          	sw	ra,28(sp)
    2a20:	00812c23          	sw	s0,24(sp)
    2a24:	02010413          	addi	s0,sp,32
    if( uxSchedulerSuspended != ( UBaseType_t ) pdFALSE )
    2a28:	000287b7          	lui	a5,0x28
    2a2c:	e087a783          	lw	a5,-504(a5) # 27e08 <uxSchedulerSuspended>
    2a30:	00078a63          	beqz	a5,2a44 <vTaskSwitchContext+0x2c>
    {
        /* The scheduler is currently suspended - do not allow a context
         * switch. */
        xYieldPending = pdTRUE;
    2a34:	000287b7          	lui	a5,0x28
    2a38:	00100713          	li	a4,1
    2a3c:	dee7aa23          	sw	a4,-524(a5) # 27df4 <xYieldPending>
             * Block specific to this task. */
            configSET_TLS_BLOCK( pxCurrentTCB->xTLSBlock );
        }
        #endif
    }
}
    2a40:	1400006f          	j	2b80 <vTaskSwitchContext+0x168>
        xYieldPending = pdFALSE;
    2a44:	000287b7          	lui	a5,0x28
    2a48:	de07aa23          	sw	zero,-524(a5) # 27df4 <xYieldPending>
        taskCHECK_FOR_STACK_OVERFLOW();
    2a4c:	000287b7          	lui	a5,0x28
    2a50:	c507a783          	lw	a5,-944(a5) # 27c50 <pxCurrentTCB>
    2a54:	0007a703          	lw	a4,0(a5)
    2a58:	000287b7          	lui	a5,0x28
    2a5c:	c507a783          	lw	a5,-944(a5) # 27c50 <pxCurrentTCB>
    2a60:	0307a783          	lw	a5,48(a5)
    2a64:	02e7e263          	bltu	a5,a4,2a88 <vTaskSwitchContext+0x70>
    2a68:	000287b7          	lui	a5,0x28
    2a6c:	c507a703          	lw	a4,-944(a5) # 27c50 <pxCurrentTCB>
    2a70:	000287b7          	lui	a5,0x28
    2a74:	c507a783          	lw	a5,-944(a5) # 27c50 <pxCurrentTCB>
    2a78:	03478793          	addi	a5,a5,52
    2a7c:	00078593          	mv	a1,a5
    2a80:	00070513          	mv	a0,a4
    2a84:	7c5030ef          	jal	ra,6a48 <vApplicationStackOverflowHook>
        taskSELECT_HIGHEST_PRIORITY_TASK(); /*lint !e9079 void * is used as this macro is used with timers and co-routines too.  Alignment is known to be fine as the type of the pointer stored and retrieved is the same. */
    2a88:	000287b7          	lui	a5,0x28
    2a8c:	de87a783          	lw	a5,-536(a5) # 27de8 <uxTopReadyPriority>
    2a90:	00078513          	mv	a0,a5
    2a94:	4901b0ef          	jal	ra,1df24 <__clzsi2>
    2a98:	00050793          	mv	a5,a0
    2a9c:	00078713          	mv	a4,a5
    2aa0:	01f00793          	li	a5,31
    2aa4:	40e787b3          	sub	a5,a5,a4
    2aa8:	fef42423          	sw	a5,-24(s0)
    2aac:	000287b7          	lui	a5,0x28
    2ab0:	ce478693          	addi	a3,a5,-796 # 27ce4 <pxReadyTasksLists>
    2ab4:	fe842703          	lw	a4,-24(s0)
    2ab8:	00070793          	mv	a5,a4
    2abc:	00279793          	slli	a5,a5,0x2
    2ac0:	00e787b3          	add	a5,a5,a4
    2ac4:	00279793          	slli	a5,a5,0x2
    2ac8:	00f687b3          	add	a5,a3,a5
    2acc:	0007a783          	lw	a5,0(a5)
    2ad0:	00079a63          	bnez	a5,2ae4 <vTaskSwitchContext+0xcc>
    2ad4:	30047073          	csrci	mstatus,8
    2ad8:	00100073          	ebreak
    2adc:	00000013          	nop
    2ae0:	ffdff06f          	j	2adc <vTaskSwitchContext+0xc4>
    2ae4:	fe842703          	lw	a4,-24(s0)
    2ae8:	00070793          	mv	a5,a4
    2aec:	00279793          	slli	a5,a5,0x2
    2af0:	00e787b3          	add	a5,a5,a4
    2af4:	00279793          	slli	a5,a5,0x2
    2af8:	00028737          	lui	a4,0x28
    2afc:	ce470713          	addi	a4,a4,-796 # 27ce4 <pxReadyTasksLists>
    2b00:	00e787b3          	add	a5,a5,a4
    2b04:	fef42623          	sw	a5,-20(s0)
    2b08:	fec42783          	lw	a5,-20(s0)
    2b0c:	0047a783          	lw	a5,4(a5)
    2b10:	0047a703          	lw	a4,4(a5)
    2b14:	fec42783          	lw	a5,-20(s0)
    2b18:	00e7a223          	sw	a4,4(a5)
    2b1c:	fec42783          	lw	a5,-20(s0)
    2b20:	0047a703          	lw	a4,4(a5)
    2b24:	fec42783          	lw	a5,-20(s0)
    2b28:	00878793          	addi	a5,a5,8
    2b2c:	00f71c63          	bne	a4,a5,2b44 <vTaskSwitchContext+0x12c>
    2b30:	fec42783          	lw	a5,-20(s0)
    2b34:	0047a783          	lw	a5,4(a5)
    2b38:	0047a703          	lw	a4,4(a5)
    2b3c:	fec42783          	lw	a5,-20(s0)
    2b40:	00e7a223          	sw	a4,4(a5)
    2b44:	fec42783          	lw	a5,-20(s0)
    2b48:	0047a783          	lw	a5,4(a5)
    2b4c:	00c7a703          	lw	a4,12(a5)
    2b50:	000287b7          	lui	a5,0x28
    2b54:	c4e7a823          	sw	a4,-944(a5) # 27c50 <pxCurrentTCB>
            configSET_TLS_BLOCK( pxCurrentTCB->xTLSBlock );
    2b58:	000287b7          	lui	a5,0x28
    2b5c:	c507a783          	lw	a5,-944(a5) # 27c50 <pxCurrentTCB>
    2b60:	05878793          	addi	a5,a5,88
    2b64:	00078513          	mv	a0,a5
    2b68:	64d030ef          	jal	ra,69b4 <alt_set_thread_pointer>
    2b6c:	000287b7          	lui	a5,0x28
    2b70:	c507a783          	lw	a5,-944(a5) # 27c50 <pxCurrentTCB>
    2b74:	15878713          	addi	a4,a5,344
    2b78:	000267b7          	lui	a5,0x26
    2b7c:	02e7ae23          	sw	a4,60(a5) # 2603c <_impure_ptr>
}
    2b80:	00000013          	nop
    2b84:	01c12083          	lw	ra,28(sp)
    2b88:	01812403          	lw	s0,24(sp)
    2b8c:	02010113          	addi	sp,sp,32
    2b90:	00008067          	ret

00002b94 <vTaskPlaceOnEventList>:
/*-----------------------------------------------------------*/

void vTaskPlaceOnEventList( List_t * const pxEventList,
                            const TickType_t xTicksToWait )
{
    2b94:	fe010113          	addi	sp,sp,-32
    2b98:	00112e23          	sw	ra,28(sp)
    2b9c:	00812c23          	sw	s0,24(sp)
    2ba0:	02010413          	addi	s0,sp,32
    2ba4:	fea42623          	sw	a0,-20(s0)
    2ba8:	feb42423          	sw	a1,-24(s0)
    configASSERT( pxEventList );
    2bac:	fec42783          	lw	a5,-20(s0)
    2bb0:	00079a63          	bnez	a5,2bc4 <vTaskPlaceOnEventList+0x30>
    2bb4:	30047073          	csrci	mstatus,8
    2bb8:	00100073          	ebreak
    2bbc:	00000013          	nop
    2bc0:	ffdff06f          	j	2bbc <vTaskPlaceOnEventList+0x28>
     *      xItemValue = ( configMAX_PRIORITIES - uxPriority )
     * Therefore, the event list is sorted in descending priority order.
     *
     * The queue that contains the event list is locked, preventing
     * simultaneous access from interrupts. */
    vListInsert( pxEventList, &( pxCurrentTCB->xEventListItem ) );
    2bc4:	000287b7          	lui	a5,0x28
    2bc8:	c507a783          	lw	a5,-944(a5) # 27c50 <pxCurrentTCB>
    2bcc:	01878793          	addi	a5,a5,24
    2bd0:	00078593          	mv	a1,a5
    2bd4:	fec42503          	lw	a0,-20(s0)
    2bd8:	1bd060ef          	jal	ra,9594 <vListInsert>

    prvAddCurrentTaskToDelayedList( xTicksToWait, pdTRUE );
    2bdc:	00100593          	li	a1,1
    2be0:	fe842503          	lw	a0,-24(s0)
    2be4:	079020ef          	jal	ra,545c <prvAddCurrentTaskToDelayedList>
}
    2be8:	00000013          	nop
    2bec:	01c12083          	lw	ra,28(sp)
    2bf0:	01812403          	lw	s0,24(sp)
    2bf4:	02010113          	addi	sp,sp,32
    2bf8:	00008067          	ret

00002bfc <vTaskPlaceOnUnorderedEventList>:
/*-----------------------------------------------------------*/

void vTaskPlaceOnUnorderedEventList( List_t * pxEventList,
                                     const TickType_t xItemValue,
                                     const TickType_t xTicksToWait )
{
    2bfc:	fd010113          	addi	sp,sp,-48
    2c00:	02112623          	sw	ra,44(sp)
    2c04:	02812423          	sw	s0,40(sp)
    2c08:	03010413          	addi	s0,sp,48
    2c0c:	fca42e23          	sw	a0,-36(s0)
    2c10:	fcb42c23          	sw	a1,-40(s0)
    2c14:	fcc42a23          	sw	a2,-44(s0)
    configASSERT( pxEventList );
    2c18:	fdc42783          	lw	a5,-36(s0)
    2c1c:	00079a63          	bnez	a5,2c30 <vTaskPlaceOnUnorderedEventList+0x34>
    2c20:	30047073          	csrci	mstatus,8
    2c24:	00100073          	ebreak
    2c28:	00000013          	nop
    2c2c:	ffdff06f          	j	2c28 <vTaskPlaceOnUnorderedEventList+0x2c>

    /* THIS FUNCTION MUST BE CALLED WITH THE SCHEDULER SUSPENDED.  It is used by
     * the event groups implementation. */
    configASSERT( uxSchedulerSuspended != 0 );
    2c30:	000287b7          	lui	a5,0x28
    2c34:	e087a783          	lw	a5,-504(a5) # 27e08 <uxSchedulerSuspended>
    2c38:	00079a63          	bnez	a5,2c4c <vTaskPlaceOnUnorderedEventList+0x50>
    2c3c:	30047073          	csrci	mstatus,8
    2c40:	00100073          	ebreak
    2c44:	00000013          	nop
    2c48:	ffdff06f          	j	2c44 <vTaskPlaceOnUnorderedEventList+0x48>

    /* Store the item value in the event list item.  It is safe to access the
     * event list item here as interrupts won't access the event list item of a
     * task that is not in the Blocked state. */
    listSET_LIST_ITEM_VALUE( &( pxCurrentTCB->xEventListItem ), xItemValue | taskEVENT_LIST_ITEM_VALUE_IN_USE );
    2c4c:	000287b7          	lui	a5,0x28
    2c50:	c507a783          	lw	a5,-944(a5) # 27c50 <pxCurrentTCB>
    2c54:	fd842683          	lw	a3,-40(s0)
    2c58:	80000737          	lui	a4,0x80000
    2c5c:	00e6e733          	or	a4,a3,a4
    2c60:	00e7ac23          	sw	a4,24(a5)
    /* Place the event list item of the TCB at the end of the appropriate event
     * list.  It is safe to access the event list here because it is part of an
     * event group implementation - and interrupts don't access event groups
     * directly (instead they access them indirectly by pending function calls to
     * the task level). */
    listINSERT_END( pxEventList, &( pxCurrentTCB->xEventListItem ) );
    2c64:	fdc42783          	lw	a5,-36(s0)
    2c68:	0047a783          	lw	a5,4(a5)
    2c6c:	fef42623          	sw	a5,-20(s0)
    2c70:	000287b7          	lui	a5,0x28
    2c74:	c507a783          	lw	a5,-944(a5) # 27c50 <pxCurrentTCB>
    2c78:	fec42703          	lw	a4,-20(s0)
    2c7c:	00e7ae23          	sw	a4,28(a5)
    2c80:	000287b7          	lui	a5,0x28
    2c84:	c507a783          	lw	a5,-944(a5) # 27c50 <pxCurrentTCB>
    2c88:	fec42703          	lw	a4,-20(s0)
    2c8c:	00872703          	lw	a4,8(a4) # 80000008 <__alt_data_end+0x7ffc0008>
    2c90:	02e7a023          	sw	a4,32(a5)
    2c94:	000287b7          	lui	a5,0x28
    2c98:	c507a703          	lw	a4,-944(a5) # 27c50 <pxCurrentTCB>
    2c9c:	fec42783          	lw	a5,-20(s0)
    2ca0:	0087a783          	lw	a5,8(a5)
    2ca4:	01870713          	addi	a4,a4,24
    2ca8:	00e7a223          	sw	a4,4(a5)
    2cac:	000287b7          	lui	a5,0x28
    2cb0:	c507a783          	lw	a5,-944(a5) # 27c50 <pxCurrentTCB>
    2cb4:	01878713          	addi	a4,a5,24
    2cb8:	fec42783          	lw	a5,-20(s0)
    2cbc:	00e7a423          	sw	a4,8(a5)
    2cc0:	000287b7          	lui	a5,0x28
    2cc4:	c507a783          	lw	a5,-944(a5) # 27c50 <pxCurrentTCB>
    2cc8:	fdc42703          	lw	a4,-36(s0)
    2ccc:	02e7a423          	sw	a4,40(a5)
    2cd0:	fdc42783          	lw	a5,-36(s0)
    2cd4:	0007a783          	lw	a5,0(a5)
    2cd8:	00178713          	addi	a4,a5,1
    2cdc:	fdc42783          	lw	a5,-36(s0)
    2ce0:	00e7a023          	sw	a4,0(a5)

    prvAddCurrentTaskToDelayedList( xTicksToWait, pdTRUE );
    2ce4:	00100593          	li	a1,1
    2ce8:	fd442503          	lw	a0,-44(s0)
    2cec:	770020ef          	jal	ra,545c <prvAddCurrentTaskToDelayedList>
}
    2cf0:	00000013          	nop
    2cf4:	02c12083          	lw	ra,44(sp)
    2cf8:	02812403          	lw	s0,40(sp)
    2cfc:	03010113          	addi	sp,sp,48
    2d00:	00008067          	ret

00002d04 <vTaskPlaceOnEventListRestricted>:
#if ( configUSE_TIMERS == 1 )

    void vTaskPlaceOnEventListRestricted( List_t * const pxEventList,
                                          TickType_t xTicksToWait,
                                          const BaseType_t xWaitIndefinitely )
    {
    2d04:	fd010113          	addi	sp,sp,-48
    2d08:	02112623          	sw	ra,44(sp)
    2d0c:	02812423          	sw	s0,40(sp)
    2d10:	03010413          	addi	s0,sp,48
    2d14:	fca42e23          	sw	a0,-36(s0)
    2d18:	fcb42c23          	sw	a1,-40(s0)
    2d1c:	fcc42a23          	sw	a2,-44(s0)
        configASSERT( pxEventList );
    2d20:	fdc42783          	lw	a5,-36(s0)
    2d24:	00079a63          	bnez	a5,2d38 <vTaskPlaceOnEventListRestricted+0x34>
    2d28:	30047073          	csrci	mstatus,8
    2d2c:	00100073          	ebreak
    2d30:	00000013          	nop
    2d34:	ffdff06f          	j	2d30 <vTaskPlaceOnEventListRestricted+0x2c>

        /* Place the event list item of the TCB in the appropriate event list.
         * In this case it is assume that this is the only task that is going to
         * be waiting on this event list, so the faster vListInsertEnd() function
         * can be used in place of vListInsert. */
        listINSERT_END( pxEventList, &( pxCurrentTCB->xEventListItem ) );
    2d38:	fdc42783          	lw	a5,-36(s0)
    2d3c:	0047a783          	lw	a5,4(a5)
    2d40:	fef42623          	sw	a5,-20(s0)
    2d44:	000287b7          	lui	a5,0x28
    2d48:	c507a783          	lw	a5,-944(a5) # 27c50 <pxCurrentTCB>
    2d4c:	fec42703          	lw	a4,-20(s0)
    2d50:	00e7ae23          	sw	a4,28(a5)
    2d54:	000287b7          	lui	a5,0x28
    2d58:	c507a783          	lw	a5,-944(a5) # 27c50 <pxCurrentTCB>
    2d5c:	fec42703          	lw	a4,-20(s0)
    2d60:	00872703          	lw	a4,8(a4)
    2d64:	02e7a023          	sw	a4,32(a5)
    2d68:	000287b7          	lui	a5,0x28
    2d6c:	c507a703          	lw	a4,-944(a5) # 27c50 <pxCurrentTCB>
    2d70:	fec42783          	lw	a5,-20(s0)
    2d74:	0087a783          	lw	a5,8(a5)
    2d78:	01870713          	addi	a4,a4,24
    2d7c:	00e7a223          	sw	a4,4(a5)
    2d80:	000287b7          	lui	a5,0x28
    2d84:	c507a783          	lw	a5,-944(a5) # 27c50 <pxCurrentTCB>
    2d88:	01878713          	addi	a4,a5,24
    2d8c:	fec42783          	lw	a5,-20(s0)
    2d90:	00e7a423          	sw	a4,8(a5)
    2d94:	000287b7          	lui	a5,0x28
    2d98:	c507a783          	lw	a5,-944(a5) # 27c50 <pxCurrentTCB>
    2d9c:	fdc42703          	lw	a4,-36(s0)
    2da0:	02e7a423          	sw	a4,40(a5)
    2da4:	fdc42783          	lw	a5,-36(s0)
    2da8:	0007a783          	lw	a5,0(a5)
    2dac:	00178713          	addi	a4,a5,1
    2db0:	fdc42783          	lw	a5,-36(s0)
    2db4:	00e7a023          	sw	a4,0(a5)

        /* If the task should block indefinitely then set the block time to a
         * value that will be recognised as an indefinite delay inside the
         * prvAddCurrentTaskToDelayedList() function. */
        if( xWaitIndefinitely != pdFALSE )
    2db8:	fd442783          	lw	a5,-44(s0)
    2dbc:	00078663          	beqz	a5,2dc8 <vTaskPlaceOnEventListRestricted+0xc4>
        {
            xTicksToWait = portMAX_DELAY;
    2dc0:	fff00793          	li	a5,-1
    2dc4:	fcf42c23          	sw	a5,-40(s0)
        }

        traceTASK_DELAY_UNTIL( ( xTickCount + xTicksToWait ) );
        prvAddCurrentTaskToDelayedList( xTicksToWait, xWaitIndefinitely );
    2dc8:	fd442583          	lw	a1,-44(s0)
    2dcc:	fd842503          	lw	a0,-40(s0)
    2dd0:	68c020ef          	jal	ra,545c <prvAddCurrentTaskToDelayedList>
    }
    2dd4:	00000013          	nop
    2dd8:	02c12083          	lw	ra,44(sp)
    2ddc:	02812403          	lw	s0,40(sp)
    2de0:	03010113          	addi	sp,sp,48
    2de4:	00008067          	ret

00002de8 <xTaskRemoveFromEventList>:

